(dp0
S'REACTION'
p1
(lp2
(lp3
S'98327056'
p4
ac__builtin__
set
p5
((lp6
S'A'
p7
aS'C'
p8
aS'E'
p9
aS'I'
p10
aS'O'
p11
aS'N'
p12
aS'R'
p13
aS'T'
p14
atp15
Rp16
aa(lp17
S'96138025'
p18
ag16
aa(lp19
S'94187025'
p20
ag16
aa(lp21
S'86397025'
p22
ag16
aa(lp23
S'85063729'
p24
ag16
aa(lp25
S'84290761'
p26
ag16
aa(lp27
S'83759104'
p28
ag16
aa(lp29
S'81432576'
p30
ag16
aa(lp31
S'80514729'
p32
ag16
aa(lp33
S'74390625'
p34
ag16
aa(lp35
S'74356129'
p36
ag16
aa(lp37
S'73942801'
p38
ag16
aa(lp39
S'73925604'
p40
ag16
aa(lp41
S'73256481'
p42
ag16
aa(lp43
S'72148036'
p44
ag16
aa(lp45
S'71520849'
p46
ag16
aa(lp47
S'71453209'
p48
ag16
aa(lp49
S'71098624'
p50
ag16
aa(lp51
S'70492816'
p52
ag16
aa(lp53
S'70459236'
p54
ag16
aa(lp55
S'70291456'
p56
ag16
aa(lp57
S'68973025'
p58
ag16
aa(lp59
S'67092481'
p60
ag16
aa(lp61
S'65318724'
p62
ag16
aa(lp63
S'63154809'
p64
ag16
aa(lp65
S'63059481'
p66
ag16
aa(lp67
S'60481729'
p68
ag16
aa(lp69
S'59274601'
p70
ag16
aa(lp71
S'58967041'
p72
ag16
aa(lp73
S'58079641'
p74
ag16
aa(lp75
S'57214096'
p76
ag16
aa(lp77
S'57108249'
p78
ag16
aa(lp79
S'56987401'
p80
ag16
aa(lp81
S'56972304'
p82
ag16
aa(lp83
S'56731024'
p84
ag16
aa(lp85
S'54213769'
p86
ag16
aa(lp87
S'53860921'
p88
ag16
aa(lp89
S'52940176'
p90
ag16
aa(lp91
S'52693081'
p92
ag16
aa(lp93
S'52374169'
p94
ag16
aa(lp95
S'52041796'
p96
ag16
aa(lp97
S'47831056'
p98
ag16
aa(lp99
S'47623801'
p100
ag16
aa(lp101
S'47596201'
p102
ag16
aa(lp103
S'46389721'
p104
ag16
aa(lp105
S'45738169'
p106
ag16
aa(lp107
S'45387169'
p108
ag16
aa(lp109
S'45239076'
p110
ag16
aa(lp111
S'43890625'
p112
ag16
aa(lp113
S'43507216'
p114
ag16
aa(lp115
S'42367081'
p116
ag16
aa(lp117
S'41938576'
p118
ag16
aa(lp119
S'41783296'
p120
ag16
aa(lp121
S'41563809'
p122
ag16
aa(lp123
S'39715204'
p124
ag16
aa(lp125
S'38427601'
p126
ag16
aa(lp127
S'38204761'
p128
ag16
aa(lp129
S'38142976'
p130
ag16
aa(lp131
S'37540129'
p132
ag16
aa(lp133
S'37185604'
p134
ag16
aa(lp135
S'37149025'
p136
ag16
aa(lp137
S'36857041'
p138
ag16
aa(lp139
S'36517849'
p140
ag16
aa(lp141
S'35617024'
p142
ag16
aa(lp143
S'34869025'
p144
ag16
aa(lp145
S'34857216'
p146
ag16
aa(lp147
S'34798201'
p148
ag16
aa(lp149
S'34257609'
p150
ag16
aa(lp151
S'32970564'
p152
ag16
aa(lp153
S'32478601'
p154
ag16
aa(lp155
S'30569841'
p156
ag16
aa(lp157
S'28901376'
p158
ag16
aa(lp159
S'24870169'
p160
ag16
aa(lp161
S'24671089'
p162
ag16
aa(lp163
S'24137569'
p164
ag16
aa(lp165
S'23970816'
p166
ag16
aa(lp167
S'23174596'
p168
ag16
aa(lp169
S'23078416'
p170
ag16
aa(lp171
S'21743569'
p172
ag16
aa(lp173
S'21473956'
p174
ag16
aa(lp175
S'21307456'
p176
ag16
aa(lp177
S'20738916'
p178
ag16
aa(lp179
S'20584369'
p180
ag16
aa(lp181
S'19847025'
p182
ag16
aa(lp183
S'17430625'
p184
ag16
aa(lp185
S'17280649'
p186
ag16
aa(lp187
S'16785409'
p188
ag16
aa(lp189
S'16378209'
p190
ag16
aa(lp191
S'13942756'
p192
ag16
aa(lp193
S'13860729'
p194
ag16
aa(lp195
S'13675204'
p196
ag16
aa(lp197
S'13527684'
p198
ag16
aa(lp199
S'13498276'
p200
ag16
aa(lp201
S'10837264'
p202
ag16
aa(lp203
S'10679824'
p204
ag16
aa(lp205
S'10673289'
p206
ag16
aa(lp207
S'10278436'
p208
ag16
aasS'LIFE'
p209
(lp210
(lp211
S'9801'
p212
ag5
((lp213
g10
ag9
aS'L'
p214
aS'F'
p215
atp216
Rp217
aa(lp218
S'9604'
p219
ag217
aa(lp220
S'9216'
p221
ag217
aa(lp222
S'9025'
p223
ag217
aa(lp224
S'8649'
p225
ag217
aa(lp226
S'7921'
p227
ag217
aa(lp228
S'7569'
p229
ag217
aa(lp230
S'7396'
p231
ag217
aa(lp232
S'7056'
p233
ag217
aa(lp234
S'6724'
p235
ag217
aa(lp236
S'6241'
p237
ag217
aa(lp238
S'6084'
p239
ag217
aa(lp240
S'5476'
p241
ag217
aa(lp242
S'5329'
p243
ag217
aa(lp244
S'5184'
p245
ag217
aa(lp246
S'5041'
p247
ag217
aa(lp248
S'4761'
p249
ag217
aa(lp250
S'4356'
p251
ag217
aa(lp252
S'4096'
p253
ag217
aa(lp254
S'3721'
p255
ag217
aa(lp256
S'3481'
p257
ag217
aa(lp258
S'3249'
p259
ag217
aa(lp260
S'3025'
p261
ag217
aa(lp262
S'2916'
p263
ag217
aa(lp264
S'2809'
p265
ag217
aa(lp266
S'2704'
p267
ag217
aa(lp268
S'2601'
p269
ag217
aa(lp270
S'2401'
p271
ag217
aa(lp272
S'2304'
p273
ag217
aa(lp274
S'1936'
p275
ag217
aa(lp276
S'1849'
p277
ag217
aa(lp278
S'1764'
p279
ag217
aa(lp280
S'1369'
p281
ag217
aa(lp282
S'1296'
p283
ag217
aa(lp284
S'1089'
p285
ag217
aa(lp286
S'1024'
p287
ag217
aasS'SURE'
p288
(lp289
(lp290
g212
ag5
((lp291
g9
aS'S'
p292
ag13
aS'U'
p293
atp294
Rp295
aa(lp296
g219
ag295
aa(lp297
g221
ag295
aa(lp298
g223
ag295
aa(lp299
g225
ag295
aa(lp300
g227
ag295
aa(lp301
g229
ag295
aa(lp302
g231
ag295
aa(lp303
g233
ag295
aa(lp304
g235
ag295
aa(lp305
g237
ag295
aa(lp306
g239
ag295
aa(lp307
g241
ag295
aa(lp308
g243
ag295
aa(lp309
g245
ag295
aa(lp310
g247
ag295
aa(lp311
g249
ag295
aa(lp312
g251
ag295
aa(lp313
g253
ag295
aa(lp314
g255
ag295
aa(lp315
g257
ag295
aa(lp316
g259
ag295
aa(lp317
g261
ag295
aa(lp318
g263
ag295
aa(lp319
g265
ag295
aa(lp320
g267
ag295
aa(lp321
g269
ag295
aa(lp322
g271
ag295
aa(lp323
g273
ag295
aa(lp324
g275
ag295
aa(lp325
g277
ag295
aa(lp326
g279
ag295
aa(lp327
g281
ag295
aa(lp328
g283
ag295
aa(lp329
g285
ag295
aa(lp330
g287
ag295
aasS'REDUCTION'
p331
(lp332
(lp333
S'923187456'
p334
ag5
((lp335
g8
ag9
aS'D'
p336
ag10
ag11
ag12
ag13
ag293
ag14
atp337
Rp338
aa(lp339
S'853107264'
p340
ag338
aa(lp341
S'847159236'
p342
ag338
aa(lp343
S'842973156'
p344
ag338
aa(lp345
S'825470361'
p346
ag338
aa(lp347
S'816930724'
p348
ag338
aa(lp349
S'803495716'
p350
ag338
aa(lp351
S'798401536'
p352
ag338
aa(lp353
S'793605241'
p354
ag338
aa(lp355
S'783104256'
p356
ag338
aa(lp357
S'743816529'
p358
ag338
aa(lp359
S'740329681'
p360
ag338
aa(lp361
S'735982641'
p362
ag338
aa(lp363
S'734681025'
p364
ag338
aa(lp365
S'714653289'
p366
ag338
aa(lp367
S'697435281'
p368
ag338
aa(lp369
S'694375201'
p370
ag338
aa(lp371
S'683927104'
p372
ag338
aa(lp373
S'672935481'
p374
ag338
aa(lp375
S'653927184'
p376
ag338
aa(lp377
S'639027841'
p378
ag338
aa(lp379
S'627953481'
p380
ag338
aa(lp381
S'615387249'
p382
ag338
aa(lp383
S'597362481'
p384
ag338
aa(lp385
S'589324176'
p386
ag338
aa(lp387
S'587432169'
p388
ag338
aa(lp389
S'576432081'
p390
ag338
aa(lp391
S'570684321'
p392
ag338
aa(lp393
S'563017984'
p394
ag338
aa(lp395
S'560837124'
p396
ag338
aa(lp397
S'549386721'
p398
ag338
aa(lp399
S'537219684'
p400
ag338
aa(lp401
S'534210769'
p402
ag338
aa(lp403
S'529874361'
p404
ag338
aa(lp405
S'523814769'
p406
ag338
aa(lp407
S'504271936'
p408
ag338
aa(lp409
S'491730625'
p410
ag338
aa(lp411
S'479653801'
p412
ag338
aa(lp413
S'478603129'
p414
ag338
aa(lp415
S'475283601'
p416
ag338
aa(lp417
S'472801536'
p418
ag338
aa(lp419
S'459630721'
p420
ag338
aa(lp421
S'457831609'
p422
ag338
aa(lp423
S'430728516'
p424
ag338
aa(lp425
S'420783169'
p426
ag338
aa(lp427
S'412739856'
p428
ag338
aa(lp429
S'403567921'
p430
ag338
aa(lp431
S'385297641'
p432
ag338
aa(lp433
S'382945761'
p434
ag338
aa(lp435
S'375468129'
p436
ag338
aa(lp437
S'361874529'
p438
ag338
aa(lp439
S'326597184'
p440
ag338
aa(lp441
S'317409856'
p442
ag338
aa(lp443
S'316057284'
p444
ag338
aa(lp445
S'307265841'
p446
ag338
aa(lp447
S'297631504'
p448
ag338
aa(lp449
S'284057316'
p450
ag338
aa(lp451
S'273869401'
p452
ag338
aa(lp453
S'254817369'
p454
ag338
aa(lp455
S'245893761'
p456
ag338
aa(lp457
S'235714609'
p458
ag338
aa(lp459
S'218034756'
p460
ag338
aa(lp461
S'217356049'
p462
ag338
aa(lp463
S'215384976'
p464
ag338
aa(lp465
S'208571364'
p466
ag338
aa(lp467
S'198753604'
p468
ag338
aa(lp469
S'187635204'
p470
ag338
aa(lp471
S'183467025'
p472
ag338
aa(lp473
S'180472356'
p474
ag338
aa(lp475
S'178035649'
p476
ag338
aa(lp477
S'176305284'
p478
ag338
aa(lp479
S'176039824'
p480
ag338
aa(lp481
S'172843609'
p482
ag338
aa(lp483
S'158407396'
p484
ag338
aa(lp485
S'158306724'
p486
ag338
aa(lp487
S'157326849'
p488
ag338
aa(lp489
S'152843769'
p490
ag338
aa(lp491
S'139854276'
p492
ag338
aa(lp493
S'105637284'
p494
ag338
aa(lp495
S'104325796'
p496
ag338
aa(lp497
S'102738496'
p498
ag338
aa(lp499
S'102576384'
p500
ag338
aa(lp501
S'102495376'
p502
ag338
aasS'RAISE'
p503
(lp504
(lp505
S'96721'
p506
ag5
((lp507
g7
ag10
ag292
ag13
ag9
atp508
Rp509
aa(lp510
S'95481'
p511
ag509
aa(lp512
S'93025'
p513
ag509
aa(lp514
S'92416'
p515
ag509
aa(lp516
S'91204'
p517
ag509
aa(lp518
S'89401'
p519
ag509
aa(lp520
S'87025'
p521
ag509
aa(lp522
S'85264'
p523
ag509
aa(lp524
S'83521'
p525
ag509
aa(lp526
S'82369'
p527
ag509
aa(lp528
S'81796'
p529
ag509
aa(lp530
S'79524'
p531
ag509
aa(lp532
S'78961'
p533
ag509
aa(lp534
S'74529'
p535
ag509
aa(lp536
S'73984'
p537
ag509
aa(lp538
S'72361'
p539
ag509
aa(lp540
S'71824'
p541
ag509
aa(lp542
S'71289'
p543
ag509
aa(lp544
S'67081'
p545
ag509
aa(lp546
S'63504'
p547
ag509
aa(lp548
S'61504'
p549
ag509
aa(lp550
S'54289'
p551
ag509
aa(lp552
S'53824'
p553
ag509
aa(lp554
S'51984'
p555
ag509
aa(lp556
S'51076'
p557
ag509
aa(lp558
S'50176'
p559
ag509
aa(lp560
S'47961'
p561
ag509
aa(lp562
S'47089'
p563
ag509
aa(lp564
S'45796'
p565
ag509
aa(lp566
S'45369'
p567
ag509
aa(lp568
S'43681'
p569
ag509
aa(lp570
S'41209'
p571
ag509
aa(lp572
S'39601'
p573
ag509
aa(lp574
S'39204'
p575
ag509
aa(lp576
S'38416'
p577
ag509
aa(lp578
S'38025'
p579
ag509
aa(lp580
S'37249'
p581
ag509
aa(lp582
S'36481'
p583
ag509
aa(lp584
S'35721'
p585
ag509
aa(lp586
S'34596'
p587
ag509
aa(lp588
S'32761'
p589
ag509
aa(lp590
S'32041'
p591
ag509
aa(lp592
S'31684'
p593
ag509
aa(lp594
S'30976'
p595
ag509
aa(lp596
S'30625'
p597
ag509
aa(lp598
S'30276'
p599
ag509
aa(lp600
S'29584'
p601
ag509
aa(lp602
S'28561'
p603
ag509
aa(lp604
S'23716'
p605
ag509
aa(lp606
S'23409'
p607
ag509
aa(lp608
S'23104'
p609
ag509
aa(lp610
S'21904'
p611
ag509
aa(lp612
S'21609'
p613
ag509
aa(lp614
S'20736'
p615
ag509
aa(lp616
S'20164'
p617
ag509
aa(lp618
S'18769'
p619
ag509
aa(lp620
S'18496'
p621
ag509
aa(lp622
S'17956'
p623
ag509
aa(lp624
S'17689'
p625
ag509
aa(lp626
S'16384'
p627
ag509
aa(lp628
S'15876'
p629
ag509
aa(lp630
S'15376'
p631
ag509
aa(lp632
S'13924'
p633
ag509
aa(lp634
S'13689'
p635
ag509
aa(lp636
S'13456'
p637
ag509
aa(lp638
S'12769'
p639
ag509
aasS'DEAL'
p640
(lp641
(lp642
g212
ag5
((lp643
g7
ag9
ag336
ag214
atp644
Rp645
aa(lp646
g219
ag645
aa(lp647
g221
ag645
aa(lp648
g223
ag645
aa(lp649
g225
ag645
aa(lp650
g227
ag645
aa(lp651
g229
ag645
aa(lp652
g231
ag645
aa(lp653
g233
ag645
aa(lp654
g235
ag645
aa(lp655
g237
ag645
aa(lp656
g239
ag645
aa(lp657
g241
ag645
aa(lp658
g243
ag645
aa(lp659
g245
ag645
aa(lp660
g247
ag645
aa(lp661
g249
ag645
aa(lp662
g251
ag645
aa(lp663
g253
ag645
aa(lp664
g255
ag645
aa(lp665
g257
ag645
aa(lp666
g259
ag645
aa(lp667
g261
ag645
aa(lp668
g263
ag645
aa(lp669
g265
ag645
aa(lp670
g267
ag645
aa(lp671
g269
ag645
aa(lp672
g271
ag645
aa(lp673
g273
ag645
aa(lp674
g275
ag645
aa(lp675
g277
ag645
aa(lp676
g279
ag645
aa(lp677
g281
ag645
aa(lp678
g283
ag645
aa(lp679
g285
ag645
aa(lp680
g287
ag645
aasS'SIT'
p681
(lp682
(lp683
S'961'
p684
ag5
((lp685
g10
ag292
ag14
atp686
Rp687
aa(lp688
S'841'
p689
ag687
aa(lp690
S'784'
p691
ag687
aa(lp692
S'729'
p693
ag687
aa(lp694
S'625'
p695
ag687
aa(lp696
S'576'
p697
ag687
aa(lp698
S'529'
p699
ag687
aa(lp700
S'361'
p701
ag687
aa(lp702
S'324'
p703
ag687
aa(lp704
S'289'
p705
ag687
aa(lp706
S'256'
p707
ag687
aa(lp708
S'196'
p709
ag687
aa(lp710
S'169'
p711
ag687
aasS'THESE'
p712
(lp713
sS'CREDIT'
p714
(lp715
(lp716
S'937024'
p717
ag5
((lp718
g8
ag9
ag336
ag10
ag13
ag14
atp719
Rp720
aa(lp721
S'893025'
p722
ag720
aa(lp723
S'872356'
p724
ag720
aa(lp725
S'863041'
p726
ag720
aa(lp727
S'839056'
p728
ag720
aa(lp729
S'819025'
p730
ag720
aa(lp731
S'815409'
p732
ag720
aa(lp733
S'813604'
p734
ag720
aa(lp735
S'790321'
p736
ag720
aa(lp737
S'781456'
p738
ag720
aa(lp739
S'760384'
p740
ag720
aa(lp741
S'758641'
p742
ag720
aa(lp743
S'751689'
p744
ag720
aa(lp745
S'731025'
p746
ag720
aa(lp747
S'729316'
p748
ag720
aa(lp749
S'725904'
p750
ag720
aa(lp751
S'714025'
p752
ag720
aa(lp753
S'710649'
p754
ag720
aa(lp755
S'708964'
p756
ag720
aa(lp757
S'703921'
p758
ag720
aa(lp759
S'687241'
p760
ag720
aa(lp761
S'651249'
p762
ag720
aa(lp763
S'648025'
p764
ag720
aa(lp765
S'638401'
p766
ag720
aa(lp767
S'635209'
p768
ag720
aa(lp769
S'613089'
p770
ag720
aa(lp771
S'605284'
p772
ag720
aa(lp773
S'603729'
p774
ag720
aa(lp775
S'582169'
p776
ag720
aa(lp777
S'576081'
p778
ag720
aa(lp779
S'573049'
p780
ag720
aa(lp781
S'549081'
p782
ag720
aa(lp783
S'543169'
p784
ag720
aa(lp785
S'537289'
p786
ag720
aa(lp787
S'524176'
p788
ag720
aa(lp789
S'514089'
p790
ag720
aa(lp791
S'508369'
p792
ag720
aa(lp793
S'502681'
p794
ag720
aa(lp795
S'501264'
p796
ag720
aa(lp797
S'497025'
p798
ag720
aa(lp799
S'483025'
p800
ag720
aa(lp801
S'470596'
p802
ag720
aa(lp803
S'458329'
p804
ag720
aa(lp805
S'436921'
p806
ag720
aa(lp807
S'423801'
p808
ag720
aa(lp809
S'418609'
p810
ag720
aa(lp811
S'416025'
p812
ag720
aa(lp813
S'408321'
p814
ag720
aa(lp815
S'405769'
p816
ag720
aa(lp817
S'401956'
p818
ag720
aa(lp819
S'395641'
p820
ag720
aa(lp821
S'391876'
p822
ag720
aa(lp823
S'390625'
p824
ag720
aa(lp825
S'385641'
p826
ag720
aa(lp827
S'381924'
p828
ag720
aa(lp829
S'379456'
p830
ag720
aa(lp831
S'357604'
p832
ag720
aa(lp833
S'356409'
p834
ag720
aa(lp835
S'351649'
p836
ag720
aa(lp837
S'349281'
p838
ag720
aa(lp839
S'346921'
p840
ag720
aa(lp841
S'341056'
p842
ag720
aa(lp843
S'329476'
p844
ag720
aa(lp845
S'327184'
p846
ag720
aa(lp847
S'326041'
p848
ag720
aa(lp849
S'321489'
p850
ag720
aa(lp851
S'318096'
p852
ag720
aa(lp853
S'310249'
p854
ag720
aa(lp855
S'293764'
p856
ag720
aa(lp857
S'279841'
p858
ag720
aa(lp859
S'259081'
p860
ag720
aa(lp861
S'258064'
p862
ag720
aa(lp863
S'257049'
p864
ag720
aa(lp865
S'254016'
p866
ag720
aa(lp867
S'237169'
p868
ag720
aa(lp869
S'214369'
p870
ag720
aa(lp871
S'209764'
p872
ag720
aa(lp873
S'207936'
p874
ag720
aa(lp875
S'198025'
p876
ag720
aa(lp877
S'195364'
p878
ag720
aa(lp879
S'180625'
p880
ag720
aa(lp881
S'173056'
p882
ag720
aa(lp883
S'170569'
p884
ag720
aa(lp885
S'164025'
p886
ag720
aa(lp887
S'162409'
p888
ag720
aa(lp889
S'157609'
p890
ag720
aa(lp891
S'140625'
p892
ag720
aa(lp893
S'139876'
p894
ag720
aa(lp895
S'134689'
p896
ag720
aa(lp897
S'132496'
p898
ag720
aa(lp899
S'124609'
p900
ag720
aa(lp901
S'123904'
p902
ag720
aa(lp903
S'107584'
p904
ag720
aa(lp905
S'104976'
p906
ag720
aa(lp907
S'104329'
p908
ag720
aa(lp909
S'103684'
p910
ag720
aasS'STOP'
p911
(lp912
(lp913
g212
ag5
((lp914
S'P'
p915
ag292
ag14
ag11
atp916
Rp917
aa(lp918
g219
ag917
aa(lp919
g221
ag917
aa(lp920
g223
ag917
aa(lp921
g225
ag917
aa(lp922
g227
ag917
aa(lp923
g229
ag917
aa(lp924
g231
ag917
aa(lp925
g233
ag917
aa(lp926
g235
ag917
aa(lp927
g237
ag917
aa(lp928
g239
ag917
aa(lp929
g241
ag917
aa(lp930
g243
ag917
aa(lp931
g245
ag917
aa(lp932
g247
ag917
aa(lp933
g249
ag917
aa(lp934
g251
ag917
aa(lp935
g253
ag917
aa(lp936
g255
ag917
aa(lp937
g257
ag917
aa(lp938
g259
ag917
aa(lp939
g261
ag917
aa(lp940
g263
ag917
aa(lp941
g265
ag917
aa(lp942
g267
ag917
aa(lp943
g269
ag917
aa(lp944
g271
ag917
aa(lp945
g273
ag917
aa(lp946
g275
ag917
aa(lp947
g277
ag917
aa(lp948
g279
ag917
aa(lp949
g281
ag917
aa(lp950
g283
ag917
aa(lp951
g285
ag917
aa(lp952
g287
ag917
aasS'DOG'
p953
(lp954
(lp955
g684
ag5
((lp956
S'G'
p957
ag336
ag11
atp958
Rp959
aa(lp960
g689
ag959
aa(lp961
g691
ag959
aa(lp962
g693
ag959
aa(lp963
g695
ag959
aa(lp964
g697
ag959
aa(lp965
g699
ag959
aa(lp966
g701
ag959
aa(lp967
g703
ag959
aa(lp968
g705
ag959
aa(lp969
g707
ag959
aa(lp970
g709
ag959
aa(lp971
g711
ag959
aasS'SEAT'
p972
(lp973
(lp974
g212
ag5
((lp975
g7
ag292
ag9
ag14
atp976
Rp977
aa(lp978
g219
ag977
aa(lp979
g221
ag977
aa(lp980
g223
ag977
aa(lp981
g225
ag977
aa(lp982
g227
ag977
aa(lp983
g229
ag977
aa(lp984
g231
ag977
aa(lp985
g233
ag977
aa(lp986
g235
ag977
aa(lp987
g237
ag977
aa(lp988
g239
ag977
aa(lp989
g241
ag977
aa(lp990
g243
ag977
aa(lp991
g245
ag977
aa(lp992
g247
ag977
aa(lp993
g249
ag977
aa(lp994
g251
ag977
aa(lp995
g253
ag977
aa(lp996
g255
ag977
aa(lp997
g257
ag977
aa(lp998
g259
ag977
aa(lp999
g261
ag977
aa(lp1000
g263
ag977
aa(lp1001
g265
ag977
aa(lp1002
g267
ag977
aa(lp1003
g269
ag977
aa(lp1004
g271
ag977
aa(lp1005
g273
ag977
aa(lp1006
g275
ag977
aa(lp1007
g277
ag977
aa(lp1008
g279
ag977
aa(lp1009
g281
ag977
aa(lp1010
g283
ag977
aa(lp1011
g285
ag977
aa(lp1012
g287
ag977
aasS'DIRECT'
p1013
(lp1014
(lp1015
g717
ag5
((lp1016
g8
ag9
ag336
ag10
ag13
ag14
atp1017
Rp1018
aa(lp1019
g722
ag1018
aa(lp1020
g724
ag1018
aa(lp1021
g726
ag1018
aa(lp1022
g728
ag1018
aa(lp1023
g730
ag1018
aa(lp1024
g732
ag1018
aa(lp1025
g734
ag1018
aa(lp1026
g736
ag1018
aa(lp1027
g738
ag1018
aa(lp1028
g740
ag1018
aa(lp1029
g742
ag1018
aa(lp1030
g744
ag1018
aa(lp1031
g746
ag1018
aa(lp1032
g748
ag1018
aa(lp1033
g750
ag1018
aa(lp1034
g752
ag1018
aa(lp1035
g754
ag1018
aa(lp1036
g756
ag1018
aa(lp1037
g758
ag1018
aa(lp1038
g760
ag1018
aa(lp1039
g762
ag1018
aa(lp1040
g764
ag1018
aa(lp1041
g766
ag1018
aa(lp1042
g768
ag1018
aa(lp1043
g770
ag1018
aa(lp1044
g772
ag1018
aa(lp1045
g774
ag1018
aa(lp1046
g776
ag1018
aa(lp1047
g778
ag1018
aa(lp1048
g780
ag1018
aa(lp1049
g782
ag1018
aa(lp1050
g784
ag1018
aa(lp1051
g786
ag1018
aa(lp1052
g788
ag1018
aa(lp1053
g790
ag1018
aa(lp1054
g792
ag1018
aa(lp1055
g794
ag1018
aa(lp1056
g796
ag1018
aa(lp1057
g798
ag1018
aa(lp1058
g800
ag1018
aa(lp1059
g802
ag1018
aa(lp1060
g804
ag1018
aa(lp1061
g806
ag1018
aa(lp1062
g808
ag1018
aa(lp1063
g810
ag1018
aa(lp1064
g812
ag1018
aa(lp1065
g814
ag1018
aa(lp1066
g816
ag1018
aa(lp1067
g818
ag1018
aa(lp1068
g820
ag1018
aa(lp1069
g822
ag1018
aa(lp1070
g824
ag1018
aa(lp1071
g826
ag1018
aa(lp1072
g828
ag1018
aa(lp1073
g830
ag1018
aa(lp1074
g832
ag1018
aa(lp1075
g834
ag1018
aa(lp1076
g836
ag1018
aa(lp1077
g838
ag1018
aa(lp1078
g840
ag1018
aa(lp1079
g842
ag1018
aa(lp1080
g844
ag1018
aa(lp1081
g846
ag1018
aa(lp1082
g848
ag1018
aa(lp1083
g850
ag1018
aa(lp1084
g852
ag1018
aa(lp1085
g854
ag1018
aa(lp1086
g856
ag1018
aa(lp1087
g858
ag1018
aa(lp1088
g860
ag1018
aa(lp1089
g862
ag1018
aa(lp1090
g864
ag1018
aa(lp1091
g866
ag1018
aa(lp1092
g868
ag1018
aa(lp1093
g870
ag1018
aa(lp1094
g872
ag1018
aa(lp1095
g874
ag1018
aa(lp1096
g876
ag1018
aa(lp1097
g878
ag1018
aa(lp1098
g880
ag1018
aa(lp1099
g882
ag1018
aa(lp1100
g884
ag1018
aa(lp1101
g886
ag1018
aa(lp1102
g888
ag1018
aa(lp1103
g890
ag1018
aa(lp1104
g892
ag1018
aa(lp1105
g894
ag1018
aa(lp1106
g896
ag1018
aa(lp1107
g898
ag1018
aa(lp1108
g900
ag1018
aa(lp1109
g902
ag1018
aa(lp1110
g904
ag1018
aa(lp1111
g906
ag1018
aa(lp1112
g908
ag1018
aa(lp1113
g910
ag1018
aasS'IGNORE'
p1114
(lp1115
(lp1116
g717
ag5
((lp1117
g9
ag957
ag10
ag11
ag12
ag13
atp1118
Rp1119
aa(lp1120
g722
ag1119
aa(lp1121
g724
ag1119
aa(lp1122
g726
ag1119
aa(lp1123
g728
ag1119
aa(lp1124
g730
ag1119
aa(lp1125
g732
ag1119
aa(lp1126
g734
ag1119
aa(lp1127
g736
ag1119
aa(lp1128
g738
ag1119
aa(lp1129
g740
ag1119
aa(lp1130
g742
ag1119
aa(lp1131
g744
ag1119
aa(lp1132
g746
ag1119
aa(lp1133
g748
ag1119
aa(lp1134
g750
ag1119
aa(lp1135
g752
ag1119
aa(lp1136
g754
ag1119
aa(lp1137
g756
ag1119
aa(lp1138
g758
ag1119
aa(lp1139
g760
ag1119
aa(lp1140
g762
ag1119
aa(lp1141
g764
ag1119
aa(lp1142
g766
ag1119
aa(lp1143
g768
ag1119
aa(lp1144
g770
ag1119
aa(lp1145
g772
ag1119
aa(lp1146
g774
ag1119
aa(lp1147
g776
ag1119
aa(lp1148
g778
ag1119
aa(lp1149
g780
ag1119
aa(lp1150
g782
ag1119
aa(lp1151
g784
ag1119
aa(lp1152
g786
ag1119
aa(lp1153
g788
ag1119
aa(lp1154
g790
ag1119
aa(lp1155
g792
ag1119
aa(lp1156
g794
ag1119
aa(lp1157
g796
ag1119
aa(lp1158
g798
ag1119
aa(lp1159
g800
ag1119
aa(lp1160
g802
ag1119
aa(lp1161
g804
ag1119
aa(lp1162
g806
ag1119
aa(lp1163
g808
ag1119
aa(lp1164
g810
ag1119
aa(lp1165
g812
ag1119
aa(lp1166
g814
ag1119
aa(lp1167
g816
ag1119
aa(lp1168
g818
ag1119
aa(lp1169
g820
ag1119
aa(lp1170
g822
ag1119
aa(lp1171
g824
ag1119
aa(lp1172
g826
ag1119
aa(lp1173
g828
ag1119
aa(lp1174
g830
ag1119
aa(lp1175
g832
ag1119
aa(lp1176
g834
ag1119
aa(lp1177
g836
ag1119
aa(lp1178
g838
ag1119
aa(lp1179
g840
ag1119
aa(lp1180
g842
ag1119
aa(lp1181
g844
ag1119
aa(lp1182
g846
ag1119
aa(lp1183
g848
ag1119
aa(lp1184
g850
ag1119
aa(lp1185
g852
ag1119
aa(lp1186
g854
ag1119
aa(lp1187
g856
ag1119
aa(lp1188
g858
ag1119
aa(lp1189
g860
ag1119
aa(lp1190
g862
ag1119
aa(lp1191
g864
ag1119
aa(lp1192
g866
ag1119
aa(lp1193
g868
ag1119
aa(lp1194
g870
ag1119
aa(lp1195
g872
ag1119
aa(lp1196
g874
ag1119
aa(lp1197
g876
ag1119
aa(lp1198
g878
ag1119
aa(lp1199
g880
ag1119
aa(lp1200
g882
ag1119
aa(lp1201
g884
ag1119
aa(lp1202
g886
ag1119
aa(lp1203
g888
ag1119
aa(lp1204
g890
ag1119
aa(lp1205
g892
ag1119
aa(lp1206
g894
ag1119
aa(lp1207
g896
ag1119
aa(lp1208
g898
ag1119
aa(lp1209
g900
ag1119
aa(lp1210
g902
ag1119
aa(lp1211
g904
ag1119
aa(lp1212
g906
ag1119
aa(lp1213
g908
ag1119
aa(lp1214
g910
ag1119
aasS'RATE'
p1215
(lp1216
(lp1217
g212
ag5
((lp1218
g7
ag13
ag9
ag14
atp1219
Rp1220
aa(lp1221
g219
ag1220
aa(lp1222
g221
ag1220
aa(lp1223
g223
ag1220
aa(lp1224
g225
ag1220
aa(lp1225
g227
ag1220
aa(lp1226
g229
ag1220
aa(lp1227
g231
ag1220
aa(lp1228
g233
ag1220
aa(lp1229
g235
ag1220
aa(lp1230
g237
ag1220
aa(lp1231
g239
ag1220
aa(lp1232
g241
ag1220
aa(lp1233
g243
ag1220
aa(lp1234
g245
ag1220
aa(lp1235
g247
ag1220
aa(lp1236
g249
ag1220
aa(lp1237
g251
ag1220
aa(lp1238
g253
ag1220
aa(lp1239
g255
ag1220
aa(lp1240
g257
ag1220
aa(lp1241
g259
ag1220
aa(lp1242
g261
ag1220
aa(lp1243
g263
ag1220
aa(lp1244
g265
ag1220
aa(lp1245
g267
ag1220
aa(lp1246
g269
ag1220
aa(lp1247
g271
ag1220
aa(lp1248
g273
ag1220
aa(lp1249
g275
ag1220
aa(lp1250
g277
ag1220
aa(lp1251
g279
ag1220
aa(lp1252
g281
ag1220
aa(lp1253
g283
ag1220
aa(lp1254
g285
ag1220
aa(lp1255
g287
ag1220
aasS'QUIET'
p1256
(lp1257
(lp1258
g506
ag5
((lp1259
S'Q'
p1260
ag10
ag293
ag14
ag9
atp1261
Rp1262
aa(lp1263
g511
ag1262
aa(lp1264
g513
ag1262
aa(lp1265
g515
ag1262
aa(lp1266
g517
ag1262
aa(lp1267
g519
ag1262
aa(lp1268
g521
ag1262
aa(lp1269
g523
ag1262
aa(lp1270
g525
ag1262
aa(lp1271
g527
ag1262
aa(lp1272
g529
ag1262
aa(lp1273
g531
ag1262
aa(lp1274
g533
ag1262
aa(lp1275
g535
ag1262
aa(lp1276
g537
ag1262
aa(lp1277
g539
ag1262
aa(lp1278
g541
ag1262
aa(lp1279
g543
ag1262
aa(lp1280
g545
ag1262
aa(lp1281
g547
ag1262
aa(lp1282
g549
ag1262
aa(lp1283
g551
ag1262
aa(lp1284
g553
ag1262
aa(lp1285
g555
ag1262
aa(lp1286
g557
ag1262
aa(lp1287
g559
ag1262
aa(lp1288
g561
ag1262
aa(lp1289
g563
ag1262
aa(lp1290
g565
ag1262
aa(lp1291
g567
ag1262
aa(lp1292
g569
ag1262
aa(lp1293
g571
ag1262
aa(lp1294
g573
ag1262
aa(lp1295
g575
ag1262
aa(lp1296
g577
ag1262
aa(lp1297
g579
ag1262
aa(lp1298
g581
ag1262
aa(lp1299
g583
ag1262
aa(lp1300
g585
ag1262
aa(lp1301
g587
ag1262
aa(lp1302
g589
ag1262
aa(lp1303
g591
ag1262
aa(lp1304
g593
ag1262
aa(lp1305
g595
ag1262
aa(lp1306
g597
ag1262
aa(lp1307
g599
ag1262
aa(lp1308
g601
ag1262
aa(lp1309
g603
ag1262
aa(lp1310
g605
ag1262
aa(lp1311
g607
ag1262
aa(lp1312
g609
ag1262
aa(lp1313
g611
ag1262
aa(lp1314
g613
ag1262
aa(lp1315
g615
ag1262
aa(lp1316
g617
ag1262
aa(lp1317
g619
ag1262
aa(lp1318
g621
ag1262
aa(lp1319
g623
ag1262
aa(lp1320
g625
ag1262
aa(lp1321
g627
ag1262
aa(lp1322
g629
ag1262
aa(lp1323
g631
ag1262
aa(lp1324
g633
ag1262
aa(lp1325
g635
ag1262
aa(lp1326
g637
ag1262
aa(lp1327
g639
ag1262
aasS'USER'
p1328
(lp1329
(lp1330
g212
ag5
((lp1331
g9
ag292
ag13
ag293
atp1332
Rp1333
aa(lp1334
g219
ag1333
aa(lp1335
g221
ag1333
aa(lp1336
g223
ag1333
aa(lp1337
g225
ag1333
aa(lp1338
g227
ag1333
aa(lp1339
g229
ag1333
aa(lp1340
g231
ag1333
aa(lp1341
g233
ag1333
aa(lp1342
g235
ag1333
aa(lp1343
g237
ag1333
aa(lp1344
g239
ag1333
aa(lp1345
g241
ag1333
aa(lp1346
g243
ag1333
aa(lp1347
g245
ag1333
aa(lp1348
g247
ag1333
aa(lp1349
g249
ag1333
aa(lp1350
g251
ag1333
aa(lp1351
g253
ag1333
aa(lp1352
g255
ag1333
aa(lp1353
g257
ag1333
aa(lp1354
g259
ag1333
aa(lp1355
g261
ag1333
aa(lp1356
g263
ag1333
aa(lp1357
g265
ag1333
aa(lp1358
g267
ag1333
aa(lp1359
g269
ag1333
aa(lp1360
g271
ag1333
aa(lp1361
g273
ag1333
aa(lp1362
g275
ag1333
aa(lp1363
g277
ag1333
aa(lp1364
g279
ag1333
aa(lp1365
g281
ag1333
aa(lp1366
g283
ag1333
aa(lp1367
g285
ag1333
aa(lp1368
g287
ag1333
aasS'FILE'
p1369
(lp1370
(lp1371
g212
ag5
((lp1372
g10
ag9
ag214
ag215
atp1373
Rp1374
aa(lp1375
g219
ag1374
aa(lp1376
g221
ag1374
aa(lp1377
g223
ag1374
aa(lp1378
g225
ag1374
aa(lp1379
g227
ag1374
aa(lp1380
g229
ag1374
aa(lp1381
g231
ag1374
aa(lp1382
g233
ag1374
aa(lp1383
g235
ag1374
aa(lp1384
g237
ag1374
aa(lp1385
g239
ag1374
aa(lp1386
g241
ag1374
aa(lp1387
g243
ag1374
aa(lp1388
g245
ag1374
aa(lp1389
g247
ag1374
aa(lp1390
g249
ag1374
aa(lp1391
g251
ag1374
aa(lp1392
g253
ag1374
aa(lp1393
g255
ag1374
aa(lp1394
g257
ag1374
aa(lp1395
g259
ag1374
aa(lp1396
g261
ag1374
aa(lp1397
g263
ag1374
aa(lp1398
g265
ag1374
aa(lp1399
g267
ag1374
aa(lp1400
g269
ag1374
aa(lp1401
g271
ag1374
aa(lp1402
g273
ag1374
aa(lp1403
g275
ag1374
aa(lp1404
g277
ag1374
aa(lp1405
g279
ag1374
aa(lp1406
g281
ag1374
aa(lp1407
g283
ag1374
aa(lp1408
g285
ag1374
aa(lp1409
g287
ag1374
aasS'ACT'
p1410
(lp1411
(lp1412
g684
ag5
((lp1413
g7
ag8
ag14
atp1414
Rp1415
aa(lp1416
g689
ag1415
aa(lp1417
g691
ag1415
aa(lp1418
g693
ag1415
aa(lp1419
g695
ag1415
aa(lp1420
g697
ag1415
aa(lp1421
g699
ag1415
aa(lp1422
g701
ag1415
aa(lp1423
g703
ag1415
aa(lp1424
g705
ag1415
aa(lp1425
g707
ag1415
aa(lp1426
g709
ag1415
aa(lp1427
g711
ag1415
aasS'SING'
p1428
(lp1429
(lp1430
g212
ag5
((lp1431
g10
ag292
ag957
ag12
atp1432
Rp1433
aa(lp1434
g219
ag1433
aa(lp1435
g221
ag1433
aa(lp1436
g223
ag1433
aa(lp1437
g225
ag1433
aa(lp1438
g227
ag1433
aa(lp1439
g229
ag1433
aa(lp1440
g231
ag1433
aa(lp1441
g233
ag1433
aa(lp1442
g235
ag1433
aa(lp1443
g237
ag1433
aa(lp1444
g239
ag1433
aa(lp1445
g241
ag1433
aa(lp1446
g243
ag1433
aa(lp1447
g245
ag1433
aa(lp1448
g247
ag1433
aa(lp1449
g249
ag1433
aa(lp1450
g251
ag1433
aa(lp1451
g253
ag1433
aa(lp1452
g255
ag1433
aa(lp1453
g257
ag1433
aa(lp1454
g259
ag1433
aa(lp1455
g261
ag1433
aa(lp1456
g263
ag1433
aa(lp1457
g265
ag1433
aa(lp1458
g267
ag1433
aa(lp1459
g269
ag1433
aa(lp1460
g271
ag1433
aa(lp1461
g273
ag1433
aa(lp1462
g275
ag1433
aa(lp1463
g277
ag1433
aa(lp1464
g279
ag1433
aa(lp1465
g281
ag1433
aa(lp1466
g283
ag1433
aa(lp1467
g285
ag1433
aa(lp1468
g287
ag1433
aasS'HATE'
p1469
(lp1470
(lp1471
g212
ag5
((lp1472
g7
aS'H'
p1473
ag9
ag14
atp1474
Rp1475
aa(lp1476
g219
ag1475
aa(lp1477
g221
ag1475
aa(lp1478
g223
ag1475
aa(lp1479
g225
ag1475
aa(lp1480
g227
ag1475
aa(lp1481
g229
ag1475
aa(lp1482
g231
ag1475
aa(lp1483
g233
ag1475
aa(lp1484
g235
ag1475
aa(lp1485
g237
ag1475
aa(lp1486
g239
ag1475
aa(lp1487
g241
ag1475
aa(lp1488
g243
ag1475
aa(lp1489
g245
ag1475
aa(lp1490
g247
ag1475
aa(lp1491
g249
ag1475
aa(lp1492
g251
ag1475
aa(lp1493
g253
ag1475
aa(lp1494
g255
ag1475
aa(lp1495
g257
ag1475
aa(lp1496
g259
ag1475
aa(lp1497
g261
ag1475
aa(lp1498
g263
ag1475
aa(lp1499
g265
ag1475
aa(lp1500
g267
ag1475
aa(lp1501
g269
ag1475
aa(lp1502
g271
ag1475
aa(lp1503
g273
ag1475
aa(lp1504
g275
ag1475
aa(lp1505
g277
ag1475
aa(lp1506
g279
ag1475
aa(lp1507
g281
ag1475
aa(lp1508
g283
ag1475
aa(lp1509
g285
ag1475
aa(lp1510
g287
ag1475
aasS'FORMER'
p1511
(lp1512
sS'SOUTH'
p1513
(lp1514
(lp1515
g506
ag5
((lp1516
g1473
ag292
ag293
ag14
ag11
atp1517
Rp1518
aa(lp1519
g511
ag1518
aa(lp1520
g513
ag1518
aa(lp1521
g515
ag1518
aa(lp1522
g517
ag1518
aa(lp1523
g519
ag1518
aa(lp1524
g521
ag1518
aa(lp1525
g523
ag1518
aa(lp1526
g525
ag1518
aa(lp1527
g527
ag1518
aa(lp1528
g529
ag1518
aa(lp1529
g531
ag1518
aa(lp1530
g533
ag1518
aa(lp1531
g535
ag1518
aa(lp1532
g537
ag1518
aa(lp1533
g539
ag1518
aa(lp1534
g541
ag1518
aa(lp1535
g543
ag1518
aa(lp1536
g545
ag1518
aa(lp1537
g547
ag1518
aa(lp1538
g549
ag1518
aa(lp1539
g551
ag1518
aa(lp1540
g553
ag1518
aa(lp1541
g555
ag1518
aa(lp1542
g557
ag1518
aa(lp1543
g559
ag1518
aa(lp1544
g561
ag1518
aa(lp1545
g563
ag1518
aa(lp1546
g565
ag1518
aa(lp1547
g567
ag1518
aa(lp1548
g569
ag1518
aa(lp1549
g571
ag1518
aa(lp1550
g573
ag1518
aa(lp1551
g575
ag1518
aa(lp1552
g577
ag1518
aa(lp1553
g579
ag1518
aa(lp1554
g581
ag1518
aa(lp1555
g583
ag1518
aa(lp1556
g585
ag1518
aa(lp1557
g587
ag1518
aa(lp1558
g589
ag1518
aa(lp1559
g591
ag1518
aa(lp1560
g593
ag1518
aa(lp1561
g595
ag1518
aa(lp1562
g597
ag1518
aa(lp1563
g599
ag1518
aa(lp1564
g601
ag1518
aa(lp1565
g603
ag1518
aa(lp1566
g605
ag1518
aa(lp1567
g607
ag1518
aa(lp1568
g609
ag1518
aa(lp1569
g611
ag1518
aa(lp1570
g613
ag1518
aa(lp1571
g615
ag1518
aa(lp1572
g617
ag1518
aa(lp1573
g619
ag1518
aa(lp1574
g621
ag1518
aa(lp1575
g623
ag1518
aa(lp1576
g625
ag1518
aa(lp1577
g627
ag1518
aa(lp1578
g629
ag1518
aa(lp1579
g631
ag1518
aa(lp1580
g633
ag1518
aa(lp1581
g635
ag1518
aa(lp1582
g637
ag1518
aa(lp1583
g639
ag1518
aasS'RECENT'
p1584
(lp1585
sS'STEAL'
p1586
(lp1587
(lp1588
g506
ag5
((lp1589
g7
ag292
ag9
ag14
ag214
atp1590
Rp1591
aa(lp1592
g511
ag1591
aa(lp1593
g513
ag1591
aa(lp1594
g515
ag1591
aa(lp1595
g517
ag1591
aa(lp1596
g519
ag1591
aa(lp1597
g521
ag1591
aa(lp1598
g523
ag1591
aa(lp1599
g525
ag1591
aa(lp1600
g527
ag1591
aa(lp1601
g529
ag1591
aa(lp1602
g531
ag1591
aa(lp1603
g533
ag1591
aa(lp1604
g535
ag1591
aa(lp1605
g537
ag1591
aa(lp1606
g539
ag1591
aa(lp1607
g541
ag1591
aa(lp1608
g543
ag1591
aa(lp1609
g545
ag1591
aa(lp1610
g547
ag1591
aa(lp1611
g549
ag1591
aa(lp1612
g551
ag1591
aa(lp1613
g553
ag1591
aa(lp1614
g555
ag1591
aa(lp1615
g557
ag1591
aa(lp1616
g559
ag1591
aa(lp1617
g561
ag1591
aa(lp1618
g563
ag1591
aa(lp1619
g565
ag1591
aa(lp1620
g567
ag1591
aa(lp1621
g569
ag1591
aa(lp1622
g571
ag1591
aa(lp1623
g573
ag1591
aa(lp1624
g575
ag1591
aa(lp1625
g577
ag1591
aa(lp1626
g579
ag1591
aa(lp1627
g581
ag1591
aa(lp1628
g583
ag1591
aa(lp1629
g585
ag1591
aa(lp1630
g587
ag1591
aa(lp1631
g589
ag1591
aa(lp1632
g591
ag1591
aa(lp1633
g593
ag1591
aa(lp1634
g595
ag1591
aa(lp1635
g597
ag1591
aa(lp1636
g599
ag1591
aa(lp1637
g601
ag1591
aa(lp1638
g603
ag1591
aa(lp1639
g605
ag1591
aa(lp1640
g607
ag1591
aa(lp1641
g609
ag1591
aa(lp1642
g611
ag1591
aa(lp1643
g613
ag1591
aa(lp1644
g615
ag1591
aa(lp1645
g617
ag1591
aa(lp1646
g619
ag1591
aa(lp1647
g621
ag1591
aa(lp1648
g623
ag1591
aa(lp1649
g625
ag1591
aa(lp1650
g627
ag1591
aa(lp1651
g629
ag1591
aa(lp1652
g631
ag1591
aa(lp1653
g633
ag1591
aa(lp1654
g635
ag1591
aa(lp1655
g637
ag1591
aa(lp1656
g639
ag1591
aasS'HEART'
p1657
(lp1658
(lp1659
g506
ag5
((lp1660
g7
ag1473
ag13
ag9
ag14
atp1661
Rp1662
aa(lp1663
g511
ag1662
aa(lp1664
g513
ag1662
aa(lp1665
g515
ag1662
aa(lp1666
g517
ag1662
aa(lp1667
g519
ag1662
aa(lp1668
g521
ag1662
aa(lp1669
g523
ag1662
aa(lp1670
g525
ag1662
aa(lp1671
g527
ag1662
aa(lp1672
g529
ag1662
aa(lp1673
g531
ag1662
aa(lp1674
g533
ag1662
aa(lp1675
g535
ag1662
aa(lp1676
g537
ag1662
aa(lp1677
g539
ag1662
aa(lp1678
g541
ag1662
aa(lp1679
g543
ag1662
aa(lp1680
g545
ag1662
aa(lp1681
g547
ag1662
aa(lp1682
g549
ag1662
aa(lp1683
g551
ag1662
aa(lp1684
g553
ag1662
aa(lp1685
g555
ag1662
aa(lp1686
g557
ag1662
aa(lp1687
g559
ag1662
aa(lp1688
g561
ag1662
aa(lp1689
g563
ag1662
aa(lp1690
g565
ag1662
aa(lp1691
g567
ag1662
aa(lp1692
g569
ag1662
aa(lp1693
g571
ag1662
aa(lp1694
g573
ag1662
aa(lp1695
g575
ag1662
aa(lp1696
g577
ag1662
aa(lp1697
g579
ag1662
aa(lp1698
g581
ag1662
aa(lp1699
g583
ag1662
aa(lp1700
g585
ag1662
aa(lp1701
g587
ag1662
aa(lp1702
g589
ag1662
aa(lp1703
g591
ag1662
aa(lp1704
g593
ag1662
aa(lp1705
g595
ag1662
aa(lp1706
g597
ag1662
aa(lp1707
g599
ag1662
aa(lp1708
g601
ag1662
aa(lp1709
g603
ag1662
aa(lp1710
g605
ag1662
aa(lp1711
g607
ag1662
aa(lp1712
g609
ag1662
aa(lp1713
g611
ag1662
aa(lp1714
g613
ag1662
aa(lp1715
g615
ag1662
aa(lp1716
g617
ag1662
aa(lp1717
g619
ag1662
aa(lp1718
g621
ag1662
aa(lp1719
g623
ag1662
aa(lp1720
g625
ag1662
aa(lp1721
g627
ag1662
aa(lp1722
g629
ag1662
aa(lp1723
g631
ag1662
aa(lp1724
g633
ag1662
aa(lp1725
g635
ag1662
aa(lp1726
g637
ag1662
aa(lp1727
g639
ag1662
aasS'OWN'
p1728
(lp1729
(lp1730
g684
ag5
((lp1731
S'W'
p1732
ag11
ag12
atp1733
Rp1734
aa(lp1735
g689
ag1734
aa(lp1736
g691
ag1734
aa(lp1737
g693
ag1734
aa(lp1738
g695
ag1734
aa(lp1739
g697
ag1734
aa(lp1740
g699
ag1734
aa(lp1741
g701
ag1734
aa(lp1742
g703
ag1734
aa(lp1743
g705
ag1734
aa(lp1744
g707
ag1734
aa(lp1745
g709
ag1734
aa(lp1746
g711
ag1734
aasS'DANGER'
p1747
(lp1748
(lp1749
g717
ag5
((lp1750
g7
ag9
ag336
ag957
ag12
ag13
atp1751
Rp1752
aa(lp1753
g722
ag1752
aa(lp1754
g724
ag1752
aa(lp1755
g726
ag1752
aa(lp1756
g728
ag1752
aa(lp1757
g730
ag1752
aa(lp1758
g732
ag1752
aa(lp1759
g734
ag1752
aa(lp1760
g736
ag1752
aa(lp1761
g738
ag1752
aa(lp1762
g740
ag1752
aa(lp1763
g742
ag1752
aa(lp1764
g744
ag1752
aa(lp1765
g746
ag1752
aa(lp1766
g748
ag1752
aa(lp1767
g750
ag1752
aa(lp1768
g752
ag1752
aa(lp1769
g754
ag1752
aa(lp1770
g756
ag1752
aa(lp1771
g758
ag1752
aa(lp1772
g760
ag1752
aa(lp1773
g762
ag1752
aa(lp1774
g764
ag1752
aa(lp1775
g766
ag1752
aa(lp1776
g768
ag1752
aa(lp1777
g770
ag1752
aa(lp1778
g772
ag1752
aa(lp1779
g774
ag1752
aa(lp1780
g776
ag1752
aa(lp1781
g778
ag1752
aa(lp1782
g780
ag1752
aa(lp1783
g782
ag1752
aa(lp1784
g784
ag1752
aa(lp1785
g786
ag1752
aa(lp1786
g788
ag1752
aa(lp1787
g790
ag1752
aa(lp1788
g792
ag1752
aa(lp1789
g794
ag1752
aa(lp1790
g796
ag1752
aa(lp1791
g798
ag1752
aa(lp1792
g800
ag1752
aa(lp1793
g802
ag1752
aa(lp1794
g804
ag1752
aa(lp1795
g806
ag1752
aa(lp1796
g808
ag1752
aa(lp1797
g810
ag1752
aa(lp1798
g812
ag1752
aa(lp1799
g814
ag1752
aa(lp1800
g816
ag1752
aa(lp1801
g818
ag1752
aa(lp1802
g820
ag1752
aa(lp1803
g822
ag1752
aa(lp1804
g824
ag1752
aa(lp1805
g826
ag1752
aa(lp1806
g828
ag1752
aa(lp1807
g830
ag1752
aa(lp1808
g832
ag1752
aa(lp1809
g834
ag1752
aa(lp1810
g836
ag1752
aa(lp1811
g838
ag1752
aa(lp1812
g840
ag1752
aa(lp1813
g842
ag1752
aa(lp1814
g844
ag1752
aa(lp1815
g846
ag1752
aa(lp1816
g848
ag1752
aa(lp1817
g850
ag1752
aa(lp1818
g852
ag1752
aa(lp1819
g854
ag1752
aa(lp1820
g856
ag1752
aa(lp1821
g858
ag1752
aa(lp1822
g860
ag1752
aa(lp1823
g862
ag1752
aa(lp1824
g864
ag1752
aa(lp1825
g866
ag1752
aa(lp1826
g868
ag1752
aa(lp1827
g870
ag1752
aa(lp1828
g872
ag1752
aa(lp1829
g874
ag1752
aa(lp1830
g876
ag1752
aa(lp1831
g878
ag1752
aa(lp1832
g880
ag1752
aa(lp1833
g882
ag1752
aa(lp1834
g884
ag1752
aa(lp1835
g886
ag1752
aa(lp1836
g888
ag1752
aa(lp1837
g890
ag1752
aa(lp1838
g892
ag1752
aa(lp1839
g894
ag1752
aa(lp1840
g896
ag1752
aa(lp1841
g898
ag1752
aa(lp1842
g900
ag1752
aa(lp1843
g902
ag1752
aa(lp1844
g904
ag1752
aa(lp1845
g906
ag1752
aa(lp1846
g908
ag1752
aa(lp1847
g910
ag1752
aasS'BROAD'
p1848
(lp1849
(lp1850
g506
ag5
((lp1851
g7
ag13
aS'B'
p1852
ag336
ag11
atp1853
Rp1854
aa(lp1855
g511
ag1854
aa(lp1856
g513
ag1854
aa(lp1857
g515
ag1854
aa(lp1858
g517
ag1854
aa(lp1859
g519
ag1854
aa(lp1860
g521
ag1854
aa(lp1861
g523
ag1854
aa(lp1862
g525
ag1854
aa(lp1863
g527
ag1854
aa(lp1864
g529
ag1854
aa(lp1865
g531
ag1854
aa(lp1866
g533
ag1854
aa(lp1867
g535
ag1854
aa(lp1868
g537
ag1854
aa(lp1869
g539
ag1854
aa(lp1870
g541
ag1854
aa(lp1871
g543
ag1854
aa(lp1872
g545
ag1854
aa(lp1873
g547
ag1854
aa(lp1874
g549
ag1854
aa(lp1875
g551
ag1854
aa(lp1876
g553
ag1854
aa(lp1877
g555
ag1854
aa(lp1878
g557
ag1854
aa(lp1879
g559
ag1854
aa(lp1880
g561
ag1854
aa(lp1881
g563
ag1854
aa(lp1882
g565
ag1854
aa(lp1883
g567
ag1854
aa(lp1884
g569
ag1854
aa(lp1885
g571
ag1854
aa(lp1886
g573
ag1854
aa(lp1887
g575
ag1854
aa(lp1888
g577
ag1854
aa(lp1889
g579
ag1854
aa(lp1890
g581
ag1854
aa(lp1891
g583
ag1854
aa(lp1892
g585
ag1854
aa(lp1893
g587
ag1854
aa(lp1894
g589
ag1854
aa(lp1895
g591
ag1854
aa(lp1896
g593
ag1854
aa(lp1897
g595
ag1854
aa(lp1898
g597
ag1854
aa(lp1899
g599
ag1854
aa(lp1900
g601
ag1854
aa(lp1901
g603
ag1854
aa(lp1902
g605
ag1854
aa(lp1903
g607
ag1854
aa(lp1904
g609
ag1854
aa(lp1905
g611
ag1854
aa(lp1906
g613
ag1854
aa(lp1907
g615
ag1854
aa(lp1908
g617
ag1854
aa(lp1909
g619
ag1854
aa(lp1910
g621
ag1854
aa(lp1911
g623
ag1854
aa(lp1912
g625
ag1854
aa(lp1913
g627
ag1854
aa(lp1914
g629
ag1854
aa(lp1915
g631
ag1854
aa(lp1916
g633
ag1854
aa(lp1917
g635
ag1854
aa(lp1918
g637
ag1854
aa(lp1919
g639
ag1854
aasS'NO'
p1920
(lp1921
(lp1922
S'81'
p1923
ag5
((lp1924
g11
ag12
atp1925
Rp1926
aa(lp1927
S'64'
p1928
ag1926
aa(lp1929
S'49'
p1930
ag1926
aa(lp1931
S'36'
p1932
ag1926
aa(lp1933
S'25'
p1934
ag1926
aa(lp1935
S'16'
p1936
ag1926
aasS'TEAR'
p1937
(lp1938
(lp1939
g212
ag5
((lp1940
g7
ag13
ag9
ag14
atp1941
Rp1942
aa(lp1943
g219
ag1942
aa(lp1944
g221
ag1942
aa(lp1945
g223
ag1942
aa(lp1946
g225
ag1942
aa(lp1947
g227
ag1942
aa(lp1948
g229
ag1942
aa(lp1949
g231
ag1942
aa(lp1950
g233
ag1942
aa(lp1951
g235
ag1942
aa(lp1952
g237
ag1942
aa(lp1953
g239
ag1942
aa(lp1954
g241
ag1942
aa(lp1955
g243
ag1942
aa(lp1956
g245
ag1942
aa(lp1957
g247
ag1942
aa(lp1958
g249
ag1942
aa(lp1959
g251
ag1942
aa(lp1960
g253
ag1942
aa(lp1961
g255
ag1942
aa(lp1962
g257
ag1942
aa(lp1963
g259
ag1942
aa(lp1964
g261
ag1942
aa(lp1965
g263
ag1942
aa(lp1966
g265
ag1942
aa(lp1967
g267
ag1942
aa(lp1968
g269
ag1942
aa(lp1969
g271
ag1942
aa(lp1970
g273
ag1942
aa(lp1971
g275
ag1942
aa(lp1972
g277
ag1942
aa(lp1973
g279
ag1942
aa(lp1974
g281
ag1942
aa(lp1975
g283
ag1942
aa(lp1976
g285
ag1942
aa(lp1977
g287
ag1942
aasS'TEA'
p1978
(lp1979
(lp1980
g684
ag5
((lp1981
g7
ag9
ag14
atp1982
Rp1983
aa(lp1984
g689
ag1983
aa(lp1985
g691
ag1983
aa(lp1986
g693
ag1983
aa(lp1987
g695
ag1983
aa(lp1988
g697
ag1983
aa(lp1989
g699
ag1983
aa(lp1990
g701
ag1983
aa(lp1991
g703
ag1983
aa(lp1992
g705
ag1983
aa(lp1993
g707
ag1983
aa(lp1994
g709
ag1983
aa(lp1995
g711
ag1983
aasS'WHO'
p1996
(lp1997
(lp1998
g684
ag5
((lp1999
g1473
ag11
ag1732
atp2000
Rp2001
aa(lp2002
g689
ag2001
aa(lp2003
g691
ag2001
aa(lp2004
g693
ag2001
aa(lp2005
g695
ag2001
aa(lp2006
g697
ag2001
aa(lp2007
g699
ag2001
aa(lp2008
g701
ag2001
aa(lp2009
g703
ag2001
aa(lp2010
g705
ag2001
aa(lp2011
g707
ag2001
aa(lp2012
g709
ag2001
aa(lp2013
g711
ag2001
aasS'EXCEPT'
p2014
(lp2015
sS'INTRODUCE'
p2016
(lp2017
(lp2018
g334
ag5
((lp2019
g8
ag9
ag336
ag10
ag11
ag12
ag13
ag293
ag14
atp2020
Rp2021
aa(lp2022
g340
ag2021
aa(lp2023
g342
ag2021
aa(lp2024
g344
ag2021
aa(lp2025
g346
ag2021
aa(lp2026
g348
ag2021
aa(lp2027
g350
ag2021
aa(lp2028
g352
ag2021
aa(lp2029
g354
ag2021
aa(lp2030
g356
ag2021
aa(lp2031
g358
ag2021
aa(lp2032
g360
ag2021
aa(lp2033
g362
ag2021
aa(lp2034
g364
ag2021
aa(lp2035
g366
ag2021
aa(lp2036
g368
ag2021
aa(lp2037
g370
ag2021
aa(lp2038
g372
ag2021
aa(lp2039
g374
ag2021
aa(lp2040
g376
ag2021
aa(lp2041
g378
ag2021
aa(lp2042
g380
ag2021
aa(lp2043
g382
ag2021
aa(lp2044
g384
ag2021
aa(lp2045
g386
ag2021
aa(lp2046
g388
ag2021
aa(lp2047
g390
ag2021
aa(lp2048
g392
ag2021
aa(lp2049
g394
ag2021
aa(lp2050
g396
ag2021
aa(lp2051
g398
ag2021
aa(lp2052
g400
ag2021
aa(lp2053
g402
ag2021
aa(lp2054
g404
ag2021
aa(lp2055
g406
ag2021
aa(lp2056
g408
ag2021
aa(lp2057
g410
ag2021
aa(lp2058
g412
ag2021
aa(lp2059
g414
ag2021
aa(lp2060
g416
ag2021
aa(lp2061
g418
ag2021
aa(lp2062
g420
ag2021
aa(lp2063
g422
ag2021
aa(lp2064
g424
ag2021
aa(lp2065
g426
ag2021
aa(lp2066
g428
ag2021
aa(lp2067
g430
ag2021
aa(lp2068
g432
ag2021
aa(lp2069
g434
ag2021
aa(lp2070
g436
ag2021
aa(lp2071
g438
ag2021
aa(lp2072
g440
ag2021
aa(lp2073
g442
ag2021
aa(lp2074
g444
ag2021
aa(lp2075
g446
ag2021
aa(lp2076
g448
ag2021
aa(lp2077
g450
ag2021
aa(lp2078
g452
ag2021
aa(lp2079
g454
ag2021
aa(lp2080
g456
ag2021
aa(lp2081
g458
ag2021
aa(lp2082
g460
ag2021
aa(lp2083
g462
ag2021
aa(lp2084
g464
ag2021
aa(lp2085
g466
ag2021
aa(lp2086
g468
ag2021
aa(lp2087
g470
ag2021
aa(lp2088
g472
ag2021
aa(lp2089
g474
ag2021
aa(lp2090
g476
ag2021
aa(lp2091
g478
ag2021
aa(lp2092
g480
ag2021
aa(lp2093
g482
ag2021
aa(lp2094
g484
ag2021
aa(lp2095
g486
ag2021
aa(lp2096
g488
ag2021
aa(lp2097
g490
ag2021
aa(lp2098
g492
ag2021
aa(lp2099
g494
ag2021
aa(lp2100
g496
ag2021
aa(lp2101
g498
ag2021
aa(lp2102
g500
ag2021
aa(lp2103
g502
ag2021
aasS'QUITE'
p2104
(lp2105
(lp2106
g506
ag5
((lp2107
g1260
ag10
ag293
ag14
ag9
atp2108
Rp2109
aa(lp2110
g511
ag2109
aa(lp2111
g513
ag2109
aa(lp2112
g515
ag2109
aa(lp2113
g517
ag2109
aa(lp2114
g519
ag2109
aa(lp2115
g521
ag2109
aa(lp2116
g523
ag2109
aa(lp2117
g525
ag2109
aa(lp2118
g527
ag2109
aa(lp2119
g529
ag2109
aa(lp2120
g531
ag2109
aa(lp2121
g533
ag2109
aa(lp2122
g535
ag2109
aa(lp2123
g537
ag2109
aa(lp2124
g539
ag2109
aa(lp2125
g541
ag2109
aa(lp2126
g543
ag2109
aa(lp2127
g545
ag2109
aa(lp2128
g547
ag2109
aa(lp2129
g549
ag2109
aa(lp2130
g551
ag2109
aa(lp2131
g553
ag2109
aa(lp2132
g555
ag2109
aa(lp2133
g557
ag2109
aa(lp2134
g559
ag2109
aa(lp2135
g561
ag2109
aa(lp2136
g563
ag2109
aa(lp2137
g565
ag2109
aa(lp2138
g567
ag2109
aa(lp2139
g569
ag2109
aa(lp2140
g571
ag2109
aa(lp2141
g573
ag2109
aa(lp2142
g575
ag2109
aa(lp2143
g577
ag2109
aa(lp2144
g579
ag2109
aa(lp2145
g581
ag2109
aa(lp2146
g583
ag2109
aa(lp2147
g585
ag2109
aa(lp2148
g587
ag2109
aa(lp2149
g589
ag2109
aa(lp2150
g591
ag2109
aa(lp2151
g593
ag2109
aa(lp2152
g595
ag2109
aa(lp2153
g597
ag2109
aa(lp2154
g599
ag2109
aa(lp2155
g601
ag2109
aa(lp2156
g603
ag2109
aa(lp2157
g605
ag2109
aa(lp2158
g607
ag2109
aa(lp2159
g609
ag2109
aa(lp2160
g611
ag2109
aa(lp2161
g613
ag2109
aa(lp2162
g615
ag2109
aa(lp2163
g617
ag2109
aa(lp2164
g619
ag2109
aa(lp2165
g621
ag2109
aa(lp2166
g623
ag2109
aa(lp2167
g625
ag2109
aa(lp2168
g627
ag2109
aa(lp2169
g629
ag2109
aa(lp2170
g631
ag2109
aa(lp2171
g633
ag2109
aa(lp2172
g635
ag2109
aa(lp2173
g637
ag2109
aa(lp2174
g639
ag2109
aasS'SOURCE'
p2175
(lp2176
(lp2177
g717
ag5
((lp2178
g8
ag9
ag11
ag292
ag13
ag293
atp2179
Rp2180
aa(lp2181
g722
ag2180
aa(lp2182
g724
ag2180
aa(lp2183
g726
ag2180
aa(lp2184
g728
ag2180
aa(lp2185
g730
ag2180
aa(lp2186
g732
ag2180
aa(lp2187
g734
ag2180
aa(lp2188
g736
ag2180
aa(lp2189
g738
ag2180
aa(lp2190
g740
ag2180
aa(lp2191
g742
ag2180
aa(lp2192
g744
ag2180
aa(lp2193
g746
ag2180
aa(lp2194
g748
ag2180
aa(lp2195
g750
ag2180
aa(lp2196
g752
ag2180
aa(lp2197
g754
ag2180
aa(lp2198
g756
ag2180
aa(lp2199
g758
ag2180
aa(lp2200
g760
ag2180
aa(lp2201
g762
ag2180
aa(lp2202
g764
ag2180
aa(lp2203
g766
ag2180
aa(lp2204
g768
ag2180
aa(lp2205
g770
ag2180
aa(lp2206
g772
ag2180
aa(lp2207
g774
ag2180
aa(lp2208
g776
ag2180
aa(lp2209
g778
ag2180
aa(lp2210
g780
ag2180
aa(lp2211
g782
ag2180
aa(lp2212
g784
ag2180
aa(lp2213
g786
ag2180
aa(lp2214
g788
ag2180
aa(lp2215
g790
ag2180
aa(lp2216
g792
ag2180
aa(lp2217
g794
ag2180
aa(lp2218
g796
ag2180
aa(lp2219
g798
ag2180
aa(lp2220
g800
ag2180
aa(lp2221
g802
ag2180
aa(lp2222
g804
ag2180
aa(lp2223
g806
ag2180
aa(lp2224
g808
ag2180
aa(lp2225
g810
ag2180
aa(lp2226
g812
ag2180
aa(lp2227
g814
ag2180
aa(lp2228
g816
ag2180
aa(lp2229
g818
ag2180
aa(lp2230
g820
ag2180
aa(lp2231
g822
ag2180
aa(lp2232
g824
ag2180
aa(lp2233
g826
ag2180
aa(lp2234
g828
ag2180
aa(lp2235
g830
ag2180
aa(lp2236
g832
ag2180
aa(lp2237
g834
ag2180
aa(lp2238
g836
ag2180
aa(lp2239
g838
ag2180
aa(lp2240
g840
ag2180
aa(lp2241
g842
ag2180
aa(lp2242
g844
ag2180
aa(lp2243
g846
ag2180
aa(lp2244
g848
ag2180
aa(lp2245
g850
ag2180
aa(lp2246
g852
ag2180
aa(lp2247
g854
ag2180
aa(lp2248
g856
ag2180
aa(lp2249
g858
ag2180
aa(lp2250
g860
ag2180
aa(lp2251
g862
ag2180
aa(lp2252
g864
ag2180
aa(lp2253
g866
ag2180
aa(lp2254
g868
ag2180
aa(lp2255
g870
ag2180
aa(lp2256
g872
ag2180
aa(lp2257
g874
ag2180
aa(lp2258
g876
ag2180
aa(lp2259
g878
ag2180
aa(lp2260
g880
ag2180
aa(lp2261
g882
ag2180
aa(lp2262
g884
ag2180
aa(lp2263
g886
ag2180
aa(lp2264
g888
ag2180
aa(lp2265
g890
ag2180
aa(lp2266
g892
ag2180
aa(lp2267
g894
ag2180
aa(lp2268
g896
ag2180
aa(lp2269
g898
ag2180
aa(lp2270
g900
ag2180
aa(lp2271
g902
ag2180
aa(lp2272
g904
ag2180
aa(lp2273
g906
ag2180
aa(lp2274
g908
ag2180
aa(lp2275
g910
ag2180
aasS'SHAPE'
p2276
(lp2277
(lp2278
g506
ag5
((lp2279
g7
ag1473
ag292
ag9
ag915
atp2280
Rp2281
aa(lp2282
g511
ag2281
aa(lp2283
g513
ag2281
aa(lp2284
g515
ag2281
aa(lp2285
g517
ag2281
aa(lp2286
g519
ag2281
aa(lp2287
g521
ag2281
aa(lp2288
g523
ag2281
aa(lp2289
g525
ag2281
aa(lp2290
g527
ag2281
aa(lp2291
g529
ag2281
aa(lp2292
g531
ag2281
aa(lp2293
g533
ag2281
aa(lp2294
g535
ag2281
aa(lp2295
g537
ag2281
aa(lp2296
g539
ag2281
aa(lp2297
g541
ag2281
aa(lp2298
g543
ag2281
aa(lp2299
g545
ag2281
aa(lp2300
g547
ag2281
aa(lp2301
g549
ag2281
aa(lp2302
g551
ag2281
aa(lp2303
g553
ag2281
aa(lp2304
g555
ag2281
aa(lp2305
g557
ag2281
aa(lp2306
g559
ag2281
aa(lp2307
g561
ag2281
aa(lp2308
g563
ag2281
aa(lp2309
g565
ag2281
aa(lp2310
g567
ag2281
aa(lp2311
g569
ag2281
aa(lp2312
g571
ag2281
aa(lp2313
g573
ag2281
aa(lp2314
g575
ag2281
aa(lp2315
g577
ag2281
aa(lp2316
g579
ag2281
aa(lp2317
g581
ag2281
aa(lp2318
g583
ag2281
aa(lp2319
g585
ag2281
aa(lp2320
g587
ag2281
aa(lp2321
g589
ag2281
aa(lp2322
g591
ag2281
aa(lp2323
g593
ag2281
aa(lp2324
g595
ag2281
aa(lp2325
g597
ag2281
aa(lp2326
g599
ag2281
aa(lp2327
g601
ag2281
aa(lp2328
g603
ag2281
aa(lp2329
g605
ag2281
aa(lp2330
g607
ag2281
aa(lp2331
g609
ag2281
aa(lp2332
g611
ag2281
aa(lp2333
g613
ag2281
aa(lp2334
g615
ag2281
aa(lp2335
g617
ag2281
aa(lp2336
g619
ag2281
aa(lp2337
g621
ag2281
aa(lp2338
g623
ag2281
aa(lp2339
g625
ag2281
aa(lp2340
g627
ag2281
aa(lp2341
g629
ag2281
aa(lp2342
g631
ag2281
aa(lp2343
g633
ag2281
aa(lp2344
g635
ag2281
aa(lp2345
g637
ag2281
aa(lp2346
g639
ag2281
aasS'RACE'
p2347
(lp2348
(lp2349
g212
ag5
((lp2350
g7
ag8
ag13
ag9
atp2351
Rp2352
aa(lp2353
g219
ag2352
aa(lp2354
g221
ag2352
aa(lp2355
g223
ag2352
aa(lp2356
g225
ag2352
aa(lp2357
g227
ag2352
aa(lp2358
g229
ag2352
aa(lp2359
g231
ag2352
aa(lp2360
g233
ag2352
aa(lp2361
g235
ag2352
aa(lp2362
g237
ag2352
aa(lp2363
g239
ag2352
aa(lp2364
g241
ag2352
aa(lp2365
g243
ag2352
aa(lp2366
g245
ag2352
aa(lp2367
g247
ag2352
aa(lp2368
g249
ag2352
aa(lp2369
g251
ag2352
aa(lp2370
g253
ag2352
aa(lp2371
g255
ag2352
aa(lp2372
g257
ag2352
aa(lp2373
g259
ag2352
aa(lp2374
g261
ag2352
aa(lp2375
g263
ag2352
aa(lp2376
g265
ag2352
aa(lp2377
g267
ag2352
aa(lp2378
g269
ag2352
aa(lp2379
g271
ag2352
aa(lp2380
g273
ag2352
aa(lp2381
g275
ag2352
aa(lp2382
g277
ag2352
aa(lp2383
g279
ag2352
aa(lp2384
g281
ag2352
aa(lp2385
g283
ag2352
aa(lp2386
g285
ag2352
aa(lp2387
g287
ag2352
aasS'ARISE'
p2388
(lp2389
(lp2390
g506
ag5
((lp2391
g7
ag10
ag292
ag13
ag9
atp2392
Rp2393
aa(lp2394
g511
ag2393
aa(lp2395
g513
ag2393
aa(lp2396
g515
ag2393
aa(lp2397
g517
ag2393
aa(lp2398
g519
ag2393
aa(lp2399
g521
ag2393
aa(lp2400
g523
ag2393
aa(lp2401
g525
ag2393
aa(lp2402
g527
ag2393
aa(lp2403
g529
ag2393
aa(lp2404
g531
ag2393
aa(lp2405
g533
ag2393
aa(lp2406
g535
ag2393
aa(lp2407
g537
ag2393
aa(lp2408
g539
ag2393
aa(lp2409
g541
ag2393
aa(lp2410
g543
ag2393
aa(lp2411
g545
ag2393
aa(lp2412
g547
ag2393
aa(lp2413
g549
ag2393
aa(lp2414
g551
ag2393
aa(lp2415
g553
ag2393
aa(lp2416
g555
ag2393
aa(lp2417
g557
ag2393
aa(lp2418
g559
ag2393
aa(lp2419
g561
ag2393
aa(lp2420
g563
ag2393
aa(lp2421
g565
ag2393
aa(lp2422
g567
ag2393
aa(lp2423
g569
ag2393
aa(lp2424
g571
ag2393
aa(lp2425
g573
ag2393
aa(lp2426
g575
ag2393
aa(lp2427
g577
ag2393
aa(lp2428
g579
ag2393
aa(lp2429
g581
ag2393
aa(lp2430
g583
ag2393
aa(lp2431
g585
ag2393
aa(lp2432
g587
ag2393
aa(lp2433
g589
ag2393
aa(lp2434
g591
ag2393
aa(lp2435
g593
ag2393
aa(lp2436
g595
ag2393
aa(lp2437
g597
ag2393
aa(lp2438
g599
ag2393
aa(lp2439
g601
ag2393
aa(lp2440
g603
ag2393
aa(lp2441
g605
ag2393
aa(lp2442
g607
ag2393
aa(lp2443
g609
ag2393
aa(lp2444
g611
ag2393
aa(lp2445
g613
ag2393
aa(lp2446
g615
ag2393
aa(lp2447
g617
ag2393
aa(lp2448
g619
ag2393
aa(lp2449
g621
ag2393
aa(lp2450
g623
ag2393
aa(lp2451
g625
ag2393
aa(lp2452
g627
ag2393
aa(lp2453
g629
ag2393
aa(lp2454
g631
ag2393
aa(lp2455
g633
ag2393
aa(lp2456
g635
ag2393
aa(lp2457
g637
ag2393
aa(lp2458
g639
ag2393
aasS'THUS'
p2459
(lp2460
(lp2461
g212
ag5
((lp2462
g1473
ag292
ag293
ag14
atp2463
Rp2464
aa(lp2465
g219
ag2464
aa(lp2466
g221
ag2464
aa(lp2467
g223
ag2464
aa(lp2468
g225
ag2464
aa(lp2469
g227
ag2464
aa(lp2470
g229
ag2464
aa(lp2471
g231
ag2464
aa(lp2472
g233
ag2464
aa(lp2473
g235
ag2464
aa(lp2474
g237
ag2464
aa(lp2475
g239
ag2464
aa(lp2476
g241
ag2464
aa(lp2477
g243
ag2464
aa(lp2478
g245
ag2464
aa(lp2479
g247
ag2464
aa(lp2480
g249
ag2464
aa(lp2481
g251
ag2464
aa(lp2482
g253
ag2464
aa(lp2483
g255
ag2464
aa(lp2484
g257
ag2464
aa(lp2485
g259
ag2464
aa(lp2486
g261
ag2464
aa(lp2487
g263
ag2464
aa(lp2488
g265
ag2464
aa(lp2489
g267
ag2464
aa(lp2490
g269
ag2464
aa(lp2491
g271
ag2464
aa(lp2492
g273
ag2464
aa(lp2493
g275
ag2464
aa(lp2494
g277
ag2464
aa(lp2495
g279
ag2464
aa(lp2496
g281
ag2464
aa(lp2497
g283
ag2464
aa(lp2498
g285
ag2464
aa(lp2499
g287
ag2464
aasS'EARTH'
p2500
(lp2501
(lp2502
g506
ag5
((lp2503
g7
ag1473
ag13
ag9
ag14
atp2504
Rp2505
aa(lp2506
g511
ag2505
aa(lp2507
g513
ag2505
aa(lp2508
g515
ag2505
aa(lp2509
g517
ag2505
aa(lp2510
g519
ag2505
aa(lp2511
g521
ag2505
aa(lp2512
g523
ag2505
aa(lp2513
g525
ag2505
aa(lp2514
g527
ag2505
aa(lp2515
g529
ag2505
aa(lp2516
g531
ag2505
aa(lp2517
g533
ag2505
aa(lp2518
g535
ag2505
aa(lp2519
g537
ag2505
aa(lp2520
g539
ag2505
aa(lp2521
g541
ag2505
aa(lp2522
g543
ag2505
aa(lp2523
g545
ag2505
aa(lp2524
g547
ag2505
aa(lp2525
g549
ag2505
aa(lp2526
g551
ag2505
aa(lp2527
g553
ag2505
aa(lp2528
g555
ag2505
aa(lp2529
g557
ag2505
aa(lp2530
g559
ag2505
aa(lp2531
g561
ag2505
aa(lp2532
g563
ag2505
aa(lp2533
g565
ag2505
aa(lp2534
g567
ag2505
aa(lp2535
g569
ag2505
aa(lp2536
g571
ag2505
aa(lp2537
g573
ag2505
aa(lp2538
g575
ag2505
aa(lp2539
g577
ag2505
aa(lp2540
g579
ag2505
aa(lp2541
g581
ag2505
aa(lp2542
g583
ag2505
aa(lp2543
g585
ag2505
aa(lp2544
g587
ag2505
aa(lp2545
g589
ag2505
aa(lp2546
g591
ag2505
aa(lp2547
g593
ag2505
aa(lp2548
g595
ag2505
aa(lp2549
g597
ag2505
aa(lp2550
g599
ag2505
aa(lp2551
g601
ag2505
aa(lp2552
g603
ag2505
aa(lp2553
g605
ag2505
aa(lp2554
g607
ag2505
aa(lp2555
g609
ag2505
aa(lp2556
g611
ag2505
aa(lp2557
g613
ag2505
aa(lp2558
g615
ag2505
aa(lp2559
g617
ag2505
aa(lp2560
g619
ag2505
aa(lp2561
g621
ag2505
aa(lp2562
g623
ag2505
aa(lp2563
g625
ag2505
aa(lp2564
g627
ag2505
aa(lp2565
g629
ag2505
aa(lp2566
g631
ag2505
aa(lp2567
g633
ag2505
aa(lp2568
g635
ag2505
aa(lp2569
g637
ag2505
aa(lp2570
g639
ag2505
aasS'COURSE'
p2571
(lp2572
(lp2573
g717
ag5
((lp2574
g8
ag9
ag11
ag292
ag13
ag293
atp2575
Rp2576
aa(lp2577
g722
ag2576
aa(lp2578
g724
ag2576
aa(lp2579
g726
ag2576
aa(lp2580
g728
ag2576
aa(lp2581
g730
ag2576
aa(lp2582
g732
ag2576
aa(lp2583
g734
ag2576
aa(lp2584
g736
ag2576
aa(lp2585
g738
ag2576
aa(lp2586
g740
ag2576
aa(lp2587
g742
ag2576
aa(lp2588
g744
ag2576
aa(lp2589
g746
ag2576
aa(lp2590
g748
ag2576
aa(lp2591
g750
ag2576
aa(lp2592
g752
ag2576
aa(lp2593
g754
ag2576
aa(lp2594
g756
ag2576
aa(lp2595
g758
ag2576
aa(lp2596
g760
ag2576
aa(lp2597
g762
ag2576
aa(lp2598
g764
ag2576
aa(lp2599
g766
ag2576
aa(lp2600
g768
ag2576
aa(lp2601
g770
ag2576
aa(lp2602
g772
ag2576
aa(lp2603
g774
ag2576
aa(lp2604
g776
ag2576
aa(lp2605
g778
ag2576
aa(lp2606
g780
ag2576
aa(lp2607
g782
ag2576
aa(lp2608
g784
ag2576
aa(lp2609
g786
ag2576
aa(lp2610
g788
ag2576
aa(lp2611
g790
ag2576
aa(lp2612
g792
ag2576
aa(lp2613
g794
ag2576
aa(lp2614
g796
ag2576
aa(lp2615
g798
ag2576
aa(lp2616
g800
ag2576
aa(lp2617
g802
ag2576
aa(lp2618
g804
ag2576
aa(lp2619
g806
ag2576
aa(lp2620
g808
ag2576
aa(lp2621
g810
ag2576
aa(lp2622
g812
ag2576
aa(lp2623
g814
ag2576
aa(lp2624
g816
ag2576
aa(lp2625
g818
ag2576
aa(lp2626
g820
ag2576
aa(lp2627
g822
ag2576
aa(lp2628
g824
ag2576
aa(lp2629
g826
ag2576
aa(lp2630
g828
ag2576
aa(lp2631
g830
ag2576
aa(lp2632
g832
ag2576
aa(lp2633
g834
ag2576
aa(lp2634
g836
ag2576
aa(lp2635
g838
ag2576
aa(lp2636
g840
ag2576
aa(lp2637
g842
ag2576
aa(lp2638
g844
ag2576
aa(lp2639
g846
ag2576
aa(lp2640
g848
ag2576
aa(lp2641
g850
ag2576
aa(lp2642
g852
ag2576
aa(lp2643
g854
ag2576
aa(lp2644
g856
ag2576
aa(lp2645
g858
ag2576
aa(lp2646
g860
ag2576
aa(lp2647
g862
ag2576
aa(lp2648
g864
ag2576
aa(lp2649
g866
ag2576
aa(lp2650
g868
ag2576
aa(lp2651
g870
ag2576
aa(lp2652
g872
ag2576
aa(lp2653
g874
ag2576
aa(lp2654
g876
ag2576
aa(lp2655
g878
ag2576
aa(lp2656
g880
ag2576
aa(lp2657
g882
ag2576
aa(lp2658
g884
ag2576
aa(lp2659
g886
ag2576
aa(lp2660
g888
ag2576
aa(lp2661
g890
ag2576
aa(lp2662
g892
ag2576
aa(lp2663
g894
ag2576
aa(lp2664
g896
ag2576
aa(lp2665
g898
ag2576
aa(lp2666
g900
ag2576
aa(lp2667
g902
ag2576
aa(lp2668
g904
ag2576
aa(lp2669
g906
ag2576
aa(lp2670
g908
ag2576
aa(lp2671
g910
ag2576
aasS'EAST'
p2672
(lp2673
(lp2674
g212
ag5
((lp2675
g7
ag292
ag9
ag14
atp2676
Rp2677
aa(lp2678
g219
ag2677
aa(lp2679
g221
ag2677
aa(lp2680
g223
ag2677
aa(lp2681
g225
ag2677
aa(lp2682
g227
ag2677
aa(lp2683
g229
ag2677
aa(lp2684
g231
ag2677
aa(lp2685
g233
ag2677
aa(lp2686
g235
ag2677
aa(lp2687
g237
ag2677
aa(lp2688
g239
ag2677
aa(lp2689
g241
ag2677
aa(lp2690
g243
ag2677
aa(lp2691
g245
ag2677
aa(lp2692
g247
ag2677
aa(lp2693
g249
ag2677
aa(lp2694
g251
ag2677
aa(lp2695
g253
ag2677
aa(lp2696
g255
ag2677
aa(lp2697
g257
ag2677
aa(lp2698
g259
ag2677
aa(lp2699
g261
ag2677
aa(lp2700
g263
ag2677
aa(lp2701
g265
ag2677
aa(lp2702
g267
ag2677
aa(lp2703
g269
ag2677
aa(lp2704
g271
ag2677
aa(lp2705
g273
ag2677
aa(lp2706
g275
ag2677
aa(lp2707
g277
ag2677
aa(lp2708
g279
ag2677
aa(lp2709
g281
ag2677
aa(lp2710
g283
ag2677
aa(lp2711
g285
ag2677
aa(lp2712
g287
ag2677
aasS'EAT'
p2713
(lp2714
(lp2715
g684
ag5
((lp2716
g7
ag9
ag14
atp2717
Rp2718
aa(lp2719
g689
ag2718
aa(lp2720
g691
ag2718
aa(lp2721
g693
ag2718
aa(lp2722
g695
ag2718
aa(lp2723
g697
ag2718
aa(lp2724
g699
ag2718
aa(lp2725
g701
ag2718
aa(lp2726
g703
ag2718
aa(lp2727
g705
ag2718
aa(lp2728
g707
ag2718
aa(lp2729
g709
ag2718
aa(lp2730
g711
ag2718
aasS'MEAN'
p2731
(lp2732
(lp2733
g212
ag5
((lp2734
g7
ag9
aS'M'
p2735
ag12
atp2736
Rp2737
aa(lp2738
g219
ag2737
aa(lp2739
g221
ag2737
aa(lp2740
g223
ag2737
aa(lp2741
g225
ag2737
aa(lp2742
g227
ag2737
aa(lp2743
g229
ag2737
aa(lp2744
g231
ag2737
aa(lp2745
g233
ag2737
aa(lp2746
g235
ag2737
aa(lp2747
g237
ag2737
aa(lp2748
g239
ag2737
aa(lp2749
g241
ag2737
aa(lp2750
g243
ag2737
aa(lp2751
g245
ag2737
aa(lp2752
g247
ag2737
aa(lp2753
g249
ag2737
aa(lp2754
g251
ag2737
aa(lp2755
g253
ag2737
aa(lp2756
g255
ag2737
aa(lp2757
g257
ag2737
aa(lp2758
g259
ag2737
aa(lp2759
g261
ag2737
aa(lp2760
g263
ag2737
aa(lp2761
g265
ag2737
aa(lp2762
g267
ag2737
aa(lp2763
g269
ag2737
aa(lp2764
g271
ag2737
aa(lp2765
g273
ag2737
aa(lp2766
g275
ag2737
aa(lp2767
g277
ag2737
aa(lp2768
g279
ag2737
aa(lp2769
g281
ag2737
aa(lp2770
g283
ag2737
aa(lp2771
g285
ag2737
aa(lp2772
g287
ag2737
aasS'CENTRE'
p2773
(lp2774
sS'CREATION'
p2775
(lp2776
(lp2777
g4
ag5
((lp2778
g7
ag8
ag9
ag10
ag11
ag12
ag13
ag14
atp2779
Rp2780
aa(lp2781
g18
ag2780
aa(lp2782
g20
ag2780
aa(lp2783
g22
ag2780
aa(lp2784
g24
ag2780
aa(lp2785
g26
ag2780
aa(lp2786
g28
ag2780
aa(lp2787
g30
ag2780
aa(lp2788
g32
ag2780
aa(lp2789
g34
ag2780
aa(lp2790
g36
ag2780
aa(lp2791
g38
ag2780
aa(lp2792
g40
ag2780
aa(lp2793
g42
ag2780
aa(lp2794
g44
ag2780
aa(lp2795
g46
ag2780
aa(lp2796
g48
ag2780
aa(lp2797
g50
ag2780
aa(lp2798
g52
ag2780
aa(lp2799
g54
ag2780
aa(lp2800
g56
ag2780
aa(lp2801
g58
ag2780
aa(lp2802
g60
ag2780
aa(lp2803
g62
ag2780
aa(lp2804
g64
ag2780
aa(lp2805
g66
ag2780
aa(lp2806
g68
ag2780
aa(lp2807
g70
ag2780
aa(lp2808
g72
ag2780
aa(lp2809
g74
ag2780
aa(lp2810
g76
ag2780
aa(lp2811
g78
ag2780
aa(lp2812
g80
ag2780
aa(lp2813
g82
ag2780
aa(lp2814
g84
ag2780
aa(lp2815
g86
ag2780
aa(lp2816
g88
ag2780
aa(lp2817
g90
ag2780
aa(lp2818
g92
ag2780
aa(lp2819
g94
ag2780
aa(lp2820
g96
ag2780
aa(lp2821
g98
ag2780
aa(lp2822
g100
ag2780
aa(lp2823
g102
ag2780
aa(lp2824
g104
ag2780
aa(lp2825
g106
ag2780
aa(lp2826
g108
ag2780
aa(lp2827
g110
ag2780
aa(lp2828
g112
ag2780
aa(lp2829
g114
ag2780
aa(lp2830
g116
ag2780
aa(lp2831
g118
ag2780
aa(lp2832
g120
ag2780
aa(lp2833
g122
ag2780
aa(lp2834
g124
ag2780
aa(lp2835
g126
ag2780
aa(lp2836
g128
ag2780
aa(lp2837
g130
ag2780
aa(lp2838
g132
ag2780
aa(lp2839
g134
ag2780
aa(lp2840
g136
ag2780
aa(lp2841
g138
ag2780
aa(lp2842
g140
ag2780
aa(lp2843
g142
ag2780
aa(lp2844
g144
ag2780
aa(lp2845
g146
ag2780
aa(lp2846
g148
ag2780
aa(lp2847
g150
ag2780
aa(lp2848
g152
ag2780
aa(lp2849
g154
ag2780
aa(lp2850
g156
ag2780
aa(lp2851
g158
ag2780
aa(lp2852
g160
ag2780
aa(lp2853
g162
ag2780
aa(lp2854
g164
ag2780
aa(lp2855
g166
ag2780
aa(lp2856
g168
ag2780
aa(lp2857
g170
ag2780
aa(lp2858
g172
ag2780
aa(lp2859
g174
ag2780
aa(lp2860
g176
ag2780
aa(lp2861
g178
ag2780
aa(lp2862
g180
ag2780
aa(lp2863
g182
ag2780
aa(lp2864
g184
ag2780
aa(lp2865
g186
ag2780
aa(lp2866
g188
ag2780
aa(lp2867
g190
ag2780
aa(lp2868
g192
ag2780
aa(lp2869
g194
ag2780
aa(lp2870
g196
ag2780
aa(lp2871
g198
ag2780
aa(lp2872
g200
ag2780
aa(lp2873
g202
ag2780
aa(lp2874
g204
ag2780
aa(lp2875
g206
ag2780
aa(lp2876
g208
ag2780
aasS'TONE'
p2877
(lp2878
(lp2879
g212
ag5
((lp2880
g9
ag14
ag11
ag12
atp2881
Rp2882
aa(lp2883
g219
ag2882
aa(lp2884
g221
ag2882
aa(lp2885
g223
ag2882
aa(lp2886
g225
ag2882
aa(lp2887
g227
ag2882
aa(lp2888
g229
ag2882
aa(lp2889
g231
ag2882
aa(lp2890
g233
ag2882
aa(lp2891
g235
ag2882
aa(lp2892
g237
ag2882
aa(lp2893
g239
ag2882
aa(lp2894
g241
ag2882
aa(lp2895
g243
ag2882
aa(lp2896
g245
ag2882
aa(lp2897
g247
ag2882
aa(lp2898
g249
ag2882
aa(lp2899
g251
ag2882
aa(lp2900
g253
ag2882
aa(lp2901
g255
ag2882
aa(lp2902
g257
ag2882
aa(lp2903
g259
ag2882
aa(lp2904
g261
ag2882
aa(lp2905
g263
ag2882
aa(lp2906
g265
ag2882
aa(lp2907
g267
ag2882
aa(lp2908
g269
ag2882
aa(lp2909
g271
ag2882
aa(lp2910
g273
ag2882
aa(lp2911
g275
ag2882
aa(lp2912
g277
ag2882
aa(lp2913
g279
ag2882
aa(lp2914
g281
ag2882
aa(lp2915
g283
ag2882
aa(lp2916
g285
ag2882
aa(lp2917
g287
ag2882
aasS'FORM'
p2918
(lp2919
(lp2920
g212
ag5
((lp2921
g13
ag2735
ag11
ag215
atp2922
Rp2923
aa(lp2924
g219
ag2923
aa(lp2925
g221
ag2923
aa(lp2926
g223
ag2923
aa(lp2927
g225
ag2923
aa(lp2928
g227
ag2923
aa(lp2929
g229
ag2923
aa(lp2930
g231
ag2923
aa(lp2931
g233
ag2923
aa(lp2932
g235
ag2923
aa(lp2933
g237
ag2923
aa(lp2934
g239
ag2923
aa(lp2935
g241
ag2923
aa(lp2936
g243
ag2923
aa(lp2937
g245
ag2923
aa(lp2938
g247
ag2923
aa(lp2939
g249
ag2923
aa(lp2940
g251
ag2923
aa(lp2941
g253
ag2923
aa(lp2942
g255
ag2923
aa(lp2943
g257
ag2923
aa(lp2944
g259
ag2923
aa(lp2945
g261
ag2923
aa(lp2946
g263
ag2923
aa(lp2947
g265
ag2923
aa(lp2948
g267
ag2923
aa(lp2949
g269
ag2923
aa(lp2950
g271
ag2923
aa(lp2951
g273
ag2923
aa(lp2952
g275
ag2923
aa(lp2953
g277
ag2923
aa(lp2954
g279
ag2923
aa(lp2955
g281
ag2923
aa(lp2956
g283
ag2923
aa(lp2957
g285
ag2923
aa(lp2958
g287
ag2923
aasS'THROW'
p2959
(lp2960
(lp2961
g506
ag5
((lp2962
g1732
ag1473
ag13
ag14
ag11
atp2963
Rp2964
aa(lp2965
g511
ag2964
aa(lp2966
g513
ag2964
aa(lp2967
g515
ag2964
aa(lp2968
g517
ag2964
aa(lp2969
g519
ag2964
aa(lp2970
g521
ag2964
aa(lp2971
g523
ag2964
aa(lp2972
g525
ag2964
aa(lp2973
g527
ag2964
aa(lp2974
g529
ag2964
aa(lp2975
g531
ag2964
aa(lp2976
g533
ag2964
aa(lp2977
g535
ag2964
aa(lp2978
g537
ag2964
aa(lp2979
g539
ag2964
aa(lp2980
g541
ag2964
aa(lp2981
g543
ag2964
aa(lp2982
g545
ag2964
aa(lp2983
g547
ag2964
aa(lp2984
g549
ag2964
aa(lp2985
g551
ag2964
aa(lp2986
g553
ag2964
aa(lp2987
g555
ag2964
aa(lp2988
g557
ag2964
aa(lp2989
g559
ag2964
aa(lp2990
g561
ag2964
aa(lp2991
g563
ag2964
aa(lp2992
g565
ag2964
aa(lp2993
g567
ag2964
aa(lp2994
g569
ag2964
aa(lp2995
g571
ag2964
aa(lp2996
g573
ag2964
aa(lp2997
g575
ag2964
aa(lp2998
g577
ag2964
aa(lp2999
g579
ag2964
aa(lp3000
g581
ag2964
aa(lp3001
g583
ag2964
aa(lp3002
g585
ag2964
aa(lp3003
g587
ag2964
aa(lp3004
g589
ag2964
aa(lp3005
g591
ag2964
aa(lp3006
g593
ag2964
aa(lp3007
g595
ag2964
aa(lp3008
g597
ag2964
aa(lp3009
g599
ag2964
aa(lp3010
g601
ag2964
aa(lp3011
g603
ag2964
aa(lp3012
g605
ag2964
aa(lp3013
g607
ag2964
aa(lp3014
g609
ag2964
aa(lp3015
g611
ag2964
aa(lp3016
g613
ag2964
aa(lp3017
g615
ag2964
aa(lp3018
g617
ag2964
aa(lp3019
g619
ag2964
aa(lp3020
g621
ag2964
aa(lp3021
g623
ag2964
aa(lp3022
g625
ag2964
aa(lp3023
g627
ag2964
aa(lp3024
g629
ag2964
aa(lp3025
g631
ag2964
aa(lp3026
g633
ag2964
aa(lp3027
g635
ag2964
aa(lp3028
g637
ag2964
aa(lp3029
g639
ag2964
aasS'GARDEN'
p3030
(lp3031
(lp3032
g717
ag5
((lp3033
g7
ag9
ag336
ag957
ag12
ag13
atp3034
Rp3035
aa(lp3036
g722
ag3035
aa(lp3037
g724
ag3035
aa(lp3038
g726
ag3035
aa(lp3039
g728
ag3035
aa(lp3040
g730
ag3035
aa(lp3041
g732
ag3035
aa(lp3042
g734
ag3035
aa(lp3043
g736
ag3035
aa(lp3044
g738
ag3035
aa(lp3045
g740
ag3035
aa(lp3046
g742
ag3035
aa(lp3047
g744
ag3035
aa(lp3048
g746
ag3035
aa(lp3049
g748
ag3035
aa(lp3050
g750
ag3035
aa(lp3051
g752
ag3035
aa(lp3052
g754
ag3035
aa(lp3053
g756
ag3035
aa(lp3054
g758
ag3035
aa(lp3055
g760
ag3035
aa(lp3056
g762
ag3035
aa(lp3057
g764
ag3035
aa(lp3058
g766
ag3035
aa(lp3059
g768
ag3035
aa(lp3060
g770
ag3035
aa(lp3061
g772
ag3035
aa(lp3062
g774
ag3035
aa(lp3063
g776
ag3035
aa(lp3064
g778
ag3035
aa(lp3065
g780
ag3035
aa(lp3066
g782
ag3035
aa(lp3067
g784
ag3035
aa(lp3068
g786
ag3035
aa(lp3069
g788
ag3035
aa(lp3070
g790
ag3035
aa(lp3071
g792
ag3035
aa(lp3072
g794
ag3035
aa(lp3073
g796
ag3035
aa(lp3074
g798
ag3035
aa(lp3075
g800
ag3035
aa(lp3076
g802
ag3035
aa(lp3077
g804
ag3035
aa(lp3078
g806
ag3035
aa(lp3079
g808
ag3035
aa(lp3080
g810
ag3035
aa(lp3081
g812
ag3035
aa(lp3082
g814
ag3035
aa(lp3083
g816
ag3035
aa(lp3084
g818
ag3035
aa(lp3085
g820
ag3035
aa(lp3086
g822
ag3035
aa(lp3087
g824
ag3035
aa(lp3088
g826
ag3035
aa(lp3089
g828
ag3035
aa(lp3090
g830
ag3035
aa(lp3091
g832
ag3035
aa(lp3092
g834
ag3035
aa(lp3093
g836
ag3035
aa(lp3094
g838
ag3035
aa(lp3095
g840
ag3035
aa(lp3096
g842
ag3035
aa(lp3097
g844
ag3035
aa(lp3098
g846
ag3035
aa(lp3099
g848
ag3035
aa(lp3100
g850
ag3035
aa(lp3101
g852
ag3035
aa(lp3102
g854
ag3035
aa(lp3103
g856
ag3035
aa(lp3104
g858
ag3035
aa(lp3105
g860
ag3035
aa(lp3106
g862
ag3035
aa(lp3107
g864
ag3035
aa(lp3108
g866
ag3035
aa(lp3109
g868
ag3035
aa(lp3110
g870
ag3035
aa(lp3111
g872
ag3035
aa(lp3112
g874
ag3035
aa(lp3113
g876
ag3035
aa(lp3114
g878
ag3035
aa(lp3115
g880
ag3035
aa(lp3116
g882
ag3035
aa(lp3117
g884
ag3035
aa(lp3118
g886
ag3035
aa(lp3119
g888
ag3035
aa(lp3120
g890
ag3035
aa(lp3121
g892
ag3035
aa(lp3122
g894
ag3035
aa(lp3123
g896
ag3035
aa(lp3124
g898
ag3035
aa(lp3125
g900
ag3035
aa(lp3126
g902
ag3035
aa(lp3127
g904
ag3035
aa(lp3128
g906
ag3035
aa(lp3129
g908
ag3035
aa(lp3130
g910
ag3035
aasS'GOD'
p3131
(lp3132
(lp3133
g684
ag5
((lp3134
g11
ag957
ag336
atp3135
Rp3136
aa(lp3137
g689
ag3136
aa(lp3138
g691
ag3136
aa(lp3139
g693
ag3136
aa(lp3140
g695
ag3136
aa(lp3141
g697
ag3136
aa(lp3142
g699
ag3136
aa(lp3143
g701
ag3136
aa(lp3144
g703
ag3136
aa(lp3145
g705
ag3136
aa(lp3146
g707
ag3136
aa(lp3147
g709
ag3136
aa(lp3148
g711
ag3136
aasS'SPOT'
p3149
(lp3150
(lp3151
g212
ag5
((lp3152
g915
ag292
ag14
ag11
atp3153
Rp3154
aa(lp3155
g219
ag3154
aa(lp3156
g221
ag3154
aa(lp3157
g223
ag3154
aa(lp3158
g225
ag3154
aa(lp3159
g227
ag3154
aa(lp3160
g229
ag3154
aa(lp3161
g231
ag3154
aa(lp3162
g233
ag3154
aa(lp3163
g235
ag3154
aa(lp3164
g237
ag3154
aa(lp3165
g239
ag3154
aa(lp3166
g241
ag3154
aa(lp3167
g243
ag3154
aa(lp3168
g245
ag3154
aa(lp3169
g247
ag3154
aa(lp3170
g249
ag3154
aa(lp3171
g251
ag3154
aa(lp3172
g253
ag3154
aa(lp3173
g255
ag3154
aa(lp3174
g257
ag3154
aa(lp3175
g259
ag3154
aa(lp3176
g261
ag3154
aa(lp3177
g263
ag3154
aa(lp3178
g265
ag3154
aa(lp3179
g267
ag3154
aa(lp3180
g269
ag3154
aa(lp3181
g271
ag3154
aa(lp3182
g273
ag3154
aa(lp3183
g275
ag3154
aa(lp3184
g277
ag3154
aa(lp3185
g279
ag3154
aa(lp3186
g281
ag3154
aa(lp3187
g283
ag3154
aa(lp3188
g285
ag3154
aa(lp3189
g287
ag3154
aasS'LEAST'
p3190
(lp3191
(lp3192
g506
ag5
((lp3193
g7
ag292
ag9
ag214
ag14
atp3194
Rp3195
aa(lp3196
g511
ag3195
aa(lp3197
g513
ag3195
aa(lp3198
g515
ag3195
aa(lp3199
g517
ag3195
aa(lp3200
g519
ag3195
aa(lp3201
g521
ag3195
aa(lp3202
g523
ag3195
aa(lp3203
g525
ag3195
aa(lp3204
g527
ag3195
aa(lp3205
g529
ag3195
aa(lp3206
g531
ag3195
aa(lp3207
g533
ag3195
aa(lp3208
g535
ag3195
aa(lp3209
g537
ag3195
aa(lp3210
g539
ag3195
aa(lp3211
g541
ag3195
aa(lp3212
g543
ag3195
aa(lp3213
g545
ag3195
aa(lp3214
g547
ag3195
aa(lp3215
g549
ag3195
aa(lp3216
g551
ag3195
aa(lp3217
g553
ag3195
aa(lp3218
g555
ag3195
aa(lp3219
g557
ag3195
aa(lp3220
g559
ag3195
aa(lp3221
g561
ag3195
aa(lp3222
g563
ag3195
aa(lp3223
g565
ag3195
aa(lp3224
g567
ag3195
aa(lp3225
g569
ag3195
aa(lp3226
g571
ag3195
aa(lp3227
g573
ag3195
aa(lp3228
g575
ag3195
aa(lp3229
g577
ag3195
aa(lp3230
g579
ag3195
aa(lp3231
g581
ag3195
aa(lp3232
g583
ag3195
aa(lp3233
g585
ag3195
aa(lp3234
g587
ag3195
aa(lp3235
g589
ag3195
aa(lp3236
g591
ag3195
aa(lp3237
g593
ag3195
aa(lp3238
g595
ag3195
aa(lp3239
g597
ag3195
aa(lp3240
g599
ag3195
aa(lp3241
g601
ag3195
aa(lp3242
g603
ag3195
aa(lp3243
g605
ag3195
aa(lp3244
g607
ag3195
aa(lp3245
g609
ag3195
aa(lp3246
g611
ag3195
aa(lp3247
g613
ag3195
aa(lp3248
g615
ag3195
aa(lp3249
g617
ag3195
aa(lp3250
g619
ag3195
aa(lp3251
g621
ag3195
aa(lp3252
g623
ag3195
aa(lp3253
g625
ag3195
aa(lp3254
g627
ag3195
aa(lp3255
g629
ag3195
aa(lp3256
g631
ag3195
aa(lp3257
g633
ag3195
aa(lp3258
g635
ag3195
aa(lp3259
g637
ag3195
aa(lp3260
g639
ag3195
aasS'SIGN'
p3261
(lp3262
(lp3263
g212
ag5
((lp3264
g10
ag292
ag957
ag12
atp3265
Rp3266
aa(lp3267
g219
ag3266
aa(lp3268
g221
ag3266
aa(lp3269
g223
ag3266
aa(lp3270
g225
ag3266
aa(lp3271
g227
ag3266
aa(lp3272
g229
ag3266
aa(lp3273
g231
ag3266
aa(lp3274
g233
ag3266
aa(lp3275
g235
ag3266
aa(lp3276
g237
ag3266
aa(lp3277
g239
ag3266
aa(lp3278
g241
ag3266
aa(lp3279
g243
ag3266
aa(lp3280
g245
ag3266
aa(lp3281
g247
ag3266
aa(lp3282
g249
ag3266
aa(lp3283
g251
ag3266
aa(lp3284
g253
ag3266
aa(lp3285
g255
ag3266
aa(lp3286
g257
ag3266
aa(lp3287
g259
ag3266
aa(lp3288
g261
ag3266
aa(lp3289
g263
ag3266
aa(lp3290
g265
ag3266
aa(lp3291
g267
ag3266
aa(lp3292
g269
ag3266
aa(lp3293
g271
ag3266
aa(lp3294
g273
ag3266
aa(lp3295
g275
ag3266
aa(lp3296
g277
ag3266
aa(lp3297
g279
ag3266
aa(lp3298
g281
ag3266
aa(lp3299
g283
ag3266
aa(lp3300
g285
ag3266
aa(lp3301
g287
ag3266
aasS'HOW'
p3302
(lp3303
(lp3304
g684
ag5
((lp3305
g1473
ag1732
ag11
atp3306
Rp3307
aa(lp3308
g689
ag3307
aa(lp3309
g691
ag3307
aa(lp3310
g693
ag3307
aa(lp3311
g695
ag3307
aa(lp3312
g697
ag3307
aa(lp3313
g699
ag3307
aa(lp3314
g701
ag3307
aa(lp3315
g703
ag3307
aa(lp3316
g705
ag3307
aa(lp3317
g707
ag3307
aa(lp3318
g709
ag3307
aa(lp3319
g711
ag3307
aasS'HEAT'
p3320
(lp3321
(lp3322
g212
ag5
((lp3323
g7
ag1473
ag9
ag14
atp3324
Rp3325
aa(lp3326
g219
ag3325
aa(lp3327
g221
ag3325
aa(lp3328
g223
ag3325
aa(lp3329
g225
ag3325
aa(lp3330
g227
ag3325
aa(lp3331
g229
ag3325
aa(lp3332
g231
ag3325
aa(lp3333
g233
ag3325
aa(lp3334
g235
ag3325
aa(lp3335
g237
ag3325
aa(lp3336
g239
ag3325
aa(lp3337
g241
ag3325
aa(lp3338
g243
ag3325
aa(lp3339
g245
ag3325
aa(lp3340
g247
ag3325
aa(lp3341
g249
ag3325
aa(lp3342
g251
ag3325
aa(lp3343
g253
ag3325
aa(lp3344
g255
ag3325
aa(lp3345
g257
ag3325
aa(lp3346
g259
ag3325
aa(lp3347
g261
ag3325
aa(lp3348
g263
ag3325
aa(lp3349
g265
ag3325
aa(lp3350
g267
ag3325
aa(lp3351
g269
ag3325
aa(lp3352
g271
ag3325
aa(lp3353
g273
ag3325
aa(lp3354
g275
ag3325
aa(lp3355
g277
ag3325
aa(lp3356
g279
ag3325
aa(lp3357
g281
ag3325
aa(lp3358
g283
ag3325
aa(lp3359
g285
ag3325
aa(lp3360
g287
ag3325
aasS'EXPECT'
p3361
(lp3362
sS'NIGHT'
p3363
(lp3364
(lp3365
g506
ag5
((lp3366
g10
ag1473
ag14
ag957
ag12
atp3367
Rp3368
aa(lp3369
g511
ag3368
aa(lp3370
g513
ag3368
aa(lp3371
g515
ag3368
aa(lp3372
g517
ag3368
aa(lp3373
g519
ag3368
aa(lp3374
g521
ag3368
aa(lp3375
g523
ag3368
aa(lp3376
g525
ag3368
aa(lp3377
g527
ag3368
aa(lp3378
g529
ag3368
aa(lp3379
g531
ag3368
aa(lp3380
g533
ag3368
aa(lp3381
g535
ag3368
aa(lp3382
g537
ag3368
aa(lp3383
g539
ag3368
aa(lp3384
g541
ag3368
aa(lp3385
g543
ag3368
aa(lp3386
g545
ag3368
aa(lp3387
g547
ag3368
aa(lp3388
g549
ag3368
aa(lp3389
g551
ag3368
aa(lp3390
g553
ag3368
aa(lp3391
g555
ag3368
aa(lp3392
g557
ag3368
aa(lp3393
g559
ag3368
aa(lp3394
g561
ag3368
aa(lp3395
g563
ag3368
aa(lp3396
g565
ag3368
aa(lp3397
g567
ag3368
aa(lp3398
g569
ag3368
aa(lp3399
g571
ag3368
aa(lp3400
g573
ag3368
aa(lp3401
g575
ag3368
aa(lp3402
g577
ag3368
aa(lp3403
g579
ag3368
aa(lp3404
g581
ag3368
aa(lp3405
g583
ag3368
aa(lp3406
g585
ag3368
aa(lp3407
g587
ag3368
aa(lp3408
g589
ag3368
aa(lp3409
g591
ag3368
aa(lp3410
g593
ag3368
aa(lp3411
g595
ag3368
aa(lp3412
g597
ag3368
aa(lp3413
g599
ag3368
aa(lp3414
g601
ag3368
aa(lp3415
g603
ag3368
aa(lp3416
g605
ag3368
aa(lp3417
g607
ag3368
aa(lp3418
g609
ag3368
aa(lp3419
g611
ag3368
aa(lp3420
g613
ag3368
aa(lp3421
g615
ag3368
aa(lp3422
g617
ag3368
aa(lp3423
g619
ag3368
aa(lp3424
g621
ag3368
aa(lp3425
g623
ag3368
aa(lp3426
g625
ag3368
aa(lp3427
g627
ag3368
aa(lp3428
g629
ag3368
aa(lp3429
g631
ag3368
aa(lp3430
g633
ag3368
aa(lp3431
g635
ag3368
aa(lp3432
g637
ag3368
aa(lp3433
g639
ag3368
aasS'POST'
p3434
(lp3435
(lp3436
g212
ag5
((lp3437
g915
ag292
ag14
ag11
atp3438
Rp3439
aa(lp3440
g219
ag3439
aa(lp3441
g221
ag3439
aa(lp3442
g223
ag3439
aa(lp3443
g225
ag3439
aa(lp3444
g227
ag3439
aa(lp3445
g229
ag3439
aa(lp3446
g231
ag3439
aa(lp3447
g233
ag3439
aa(lp3448
g235
ag3439
aa(lp3449
g237
ag3439
aa(lp3450
g239
ag3439
aa(lp3451
g241
ag3439
aa(lp3452
g243
ag3439
aa(lp3453
g245
ag3439
aa(lp3454
g247
ag3439
aa(lp3455
g249
ag3439
aa(lp3456
g251
ag3439
aa(lp3457
g253
ag3439
aa(lp3458
g255
ag3439
aa(lp3459
g257
ag3439
aa(lp3460
g259
ag3439
aa(lp3461
g261
ag3439
aa(lp3462
g263
ag3439
aa(lp3463
g265
ag3439
aa(lp3464
g267
ag3439
aa(lp3465
g269
ag3439
aa(lp3466
g271
ag3439
aa(lp3467
g273
ag3439
aa(lp3468
g275
ag3439
aa(lp3469
g277
ag3439
aa(lp3470
g279
ag3439
aa(lp3471
g281
ag3439
aa(lp3472
g283
ag3439
aa(lp3473
g285
ag3439
aa(lp3474
g287
ag3439
aasS'CAT'
p3475
(lp3476
(lp3477
g684
ag5
((lp3478
g7
ag8
ag14
atp3479
Rp3480
aa(lp3481
g689
ag3480
aa(lp3482
g691
ag3480
aa(lp3483
g693
ag3480
aa(lp3484
g695
ag3480
aa(lp3485
g697
ag3480
aa(lp3486
g699
ag3480
aa(lp3487
g701
ag3480
aa(lp3488
g703
ag3480
aa(lp3489
g705
ag3480
aa(lp3490
g707
ag3480
aa(lp3491
g709
ag3480
aa(lp3492
g711
ag3480
aasS'WORTH'
p3493
(lp3494
(lp3495
g506
ag5
((lp3496
g1473
ag13
ag11
ag1732
ag14
atp3497
Rp3498
aa(lp3499
g511
ag3498
aa(lp3500
g513
ag3498
aa(lp3501
g515
ag3498
aa(lp3502
g517
ag3498
aa(lp3503
g519
ag3498
aa(lp3504
g521
ag3498
aa(lp3505
g523
ag3498
aa(lp3506
g525
ag3498
aa(lp3507
g527
ag3498
aa(lp3508
g529
ag3498
aa(lp3509
g531
ag3498
aa(lp3510
g533
ag3498
aa(lp3511
g535
ag3498
aa(lp3512
g537
ag3498
aa(lp3513
g539
ag3498
aa(lp3514
g541
ag3498
aa(lp3515
g543
ag3498
aa(lp3516
g545
ag3498
aa(lp3517
g547
ag3498
aa(lp3518
g549
ag3498
aa(lp3519
g551
ag3498
aa(lp3520
g553
ag3498
aa(lp3521
g555
ag3498
aa(lp3522
g557
ag3498
aa(lp3523
g559
ag3498
aa(lp3524
g561
ag3498
aa(lp3525
g563
ag3498
aa(lp3526
g565
ag3498
aa(lp3527
g567
ag3498
aa(lp3528
g569
ag3498
aa(lp3529
g571
ag3498
aa(lp3530
g573
ag3498
aa(lp3531
g575
ag3498
aa(lp3532
g577
ag3498
aa(lp3533
g579
ag3498
aa(lp3534
g581
ag3498
aa(lp3535
g583
ag3498
aa(lp3536
g585
ag3498
aa(lp3537
g587
ag3498
aa(lp3538
g589
ag3498
aa(lp3539
g591
ag3498
aa(lp3540
g593
ag3498
aa(lp3541
g595
ag3498
aa(lp3542
g597
ag3498
aa(lp3543
g599
ag3498
aa(lp3544
g601
ag3498
aa(lp3545
g603
ag3498
aa(lp3546
g605
ag3498
aa(lp3547
g607
ag3498
aa(lp3548
g609
ag3498
aa(lp3549
g611
ag3498
aa(lp3550
g613
ag3498
aa(lp3551
g615
ag3498
aa(lp3552
g617
ag3498
aa(lp3553
g619
ag3498
aa(lp3554
g621
ag3498
aa(lp3555
g623
ag3498
aa(lp3556
g625
ag3498
aa(lp3557
g627
ag3498
aa(lp3558
g629
ag3498
aa(lp3559
g631
ag3498
aa(lp3560
g633
ag3498
aa(lp3561
g635
ag3498
aa(lp3562
g637
ag3498
aa(lp3563
g639
ag3498
aasS'CARE'
p3564
(lp3565
(lp3566
g212
ag5
((lp3567
g7
ag8
ag13
ag9
atp3568
Rp3569
aa(lp3570
g219
ag3569
aa(lp3571
g221
ag3569
aa(lp3572
g223
ag3569
aa(lp3573
g225
ag3569
aa(lp3574
g227
ag3569
aa(lp3575
g229
ag3569
aa(lp3576
g231
ag3569
aa(lp3577
g233
ag3569
aa(lp3578
g235
ag3569
aa(lp3579
g237
ag3569
aa(lp3580
g239
ag3569
aa(lp3581
g241
ag3569
aa(lp3582
g243
ag3569
aa(lp3583
g245
ag3569
aa(lp3584
g247
ag3569
aa(lp3585
g249
ag3569
aa(lp3586
g251
ag3569
aa(lp3587
g253
ag3569
aa(lp3588
g255
ag3569
aa(lp3589
g257
ag3569
aa(lp3590
g259
ag3569
aa(lp3591
g261
ag3569
aa(lp3592
g263
ag3569
aa(lp3593
g265
ag3569
aa(lp3594
g267
ag3569
aa(lp3595
g269
ag3569
aa(lp3596
g271
ag3569
aa(lp3597
g273
ag3569
aa(lp3598
g275
ag3569
aa(lp3599
g277
ag3569
aa(lp3600
g279
ag3569
aa(lp3601
g281
ag3569
aa(lp3602
g283
ag3569
aa(lp3603
g285
ag3569
aa(lp3604
g287
ag3569
aasS'ON'
p3605
(lp3606
(lp3607
g1923
ag5
((lp3608
g11
ag12
atp3609
Rp3610
aa(lp3611
g1928
ag3610
aa(lp3612
g1930
ag3610
aa(lp3613
g1932
ag3610
aa(lp3614
g1934
ag3610
aa(lp3615
g1936
ag3610
aasS'EARN'
p3616
(lp3617
(lp3618
g212
ag5
((lp3619
g7
ag13
ag9
ag12
atp3620
Rp3621
aa(lp3622
g219
ag3621
aa(lp3623
g221
ag3621
aa(lp3624
g223
ag3621
aa(lp3625
g225
ag3621
aa(lp3626
g227
ag3621
aa(lp3627
g229
ag3621
aa(lp3628
g231
ag3621
aa(lp3629
g233
ag3621
aa(lp3630
g235
ag3621
aa(lp3631
g237
ag3621
aa(lp3632
g239
ag3621
aa(lp3633
g241
ag3621
aa(lp3634
g243
ag3621
aa(lp3635
g245
ag3621
aa(lp3636
g247
ag3621
aa(lp3637
g249
ag3621
aa(lp3638
g251
ag3621
aa(lp3639
g253
ag3621
aa(lp3640
g255
ag3621
aa(lp3641
g257
ag3621
aa(lp3642
g259
ag3621
aa(lp3643
g261
ag3621
aa(lp3644
g263
ag3621
aa(lp3645
g265
ag3621
aa(lp3646
g267
ag3621
aa(lp3647
g269
ag3621
aa(lp3648
g271
ag3621
aa(lp3649
g273
ag3621
aa(lp3650
g275
ag3621
aa(lp3651
g277
ag3621
aa(lp3652
g279
ag3621
aa(lp3653
g281
ag3621
aa(lp3654
g283
ag3621
aa(lp3655
g285
ag3621
aa(lp3656
g287
ag3621
aasS'MALE'
p3657
(lp3658
(lp3659
g212
ag5
((lp3660
g7
ag9
ag2735
ag214
atp3661
Rp3662
aa(lp3663
g219
ag3662
aa(lp3664
g221
ag3662
aa(lp3665
g223
ag3662
aa(lp3666
g225
ag3662
aa(lp3667
g227
ag3662
aa(lp3668
g229
ag3662
aa(lp3669
g231
ag3662
aa(lp3670
g233
ag3662
aa(lp3671
g235
ag3662
aa(lp3672
g237
ag3662
aa(lp3673
g239
ag3662
aa(lp3674
g241
ag3662
aa(lp3675
g243
ag3662
aa(lp3676
g245
ag3662
aa(lp3677
g247
ag3662
aa(lp3678
g249
ag3662
aa(lp3679
g251
ag3662
aa(lp3680
g253
ag3662
aa(lp3681
g255
ag3662
aa(lp3682
g257
ag3662
aa(lp3683
g259
ag3662
aa(lp3684
g261
ag3662
aa(lp3685
g263
ag3662
aa(lp3686
g265
ag3662
aa(lp3687
g267
ag3662
aa(lp3688
g269
ag3662
aa(lp3689
g271
ag3662
aa(lp3690
g273
ag3662
aa(lp3691
g275
ag3662
aa(lp3692
g277
ag3662
aa(lp3693
g279
ag3662
aa(lp3694
g281
ag3662
aa(lp3695
g283
ag3662
aa(lp3696
g285
ag3662
aa(lp3697
g287
ag3662
aasS'FROM'
p3698
(lp3699
(lp3700
g212
ag5
((lp3701
g13
ag2735
ag11
ag215
atp3702
Rp3703
aa(lp3704
g219
ag3703
aa(lp3705
g221
ag3703
aa(lp3706
g223
ag3703
aa(lp3707
g225
ag3703
aa(lp3708
g227
ag3703
aa(lp3709
g229
ag3703
aa(lp3710
g231
ag3703
aa(lp3711
g233
ag3703
aa(lp3712
g235
ag3703
aa(lp3713
g237
ag3703
aa(lp3714
g239
ag3703
aa(lp3715
g241
ag3703
aa(lp3716
g243
ag3703
aa(lp3717
g245
ag3703
aa(lp3718
g247
ag3703
aa(lp3719
g249
ag3703
aa(lp3720
g251
ag3703
aa(lp3721
g253
ag3703
aa(lp3722
g255
ag3703
aa(lp3723
g257
ag3703
aa(lp3724
g259
ag3703
aa(lp3725
g261
ag3703
aa(lp3726
g263
ag3703
aa(lp3727
g265
ag3703
aa(lp3728
g267
ag3703
aa(lp3729
g269
ag3703
aa(lp3730
g271
ag3703
aa(lp3731
g273
ag3703
aa(lp3732
g275
ag3703
aa(lp3733
g277
ag3703
aa(lp3734
g279
ag3703
aa(lp3735
g281
ag3703
aa(lp3736
g283
ag3703
aa(lp3737
g285
ag3703
aa(lp3738
g287
ag3703
aasS'NAME'
p3739
(lp3740
(lp3741
g212
ag5
((lp3742
g7
ag9
ag2735
ag12
atp3743
Rp3744
aa(lp3745
g219
ag3744
aa(lp3746
g221
ag3744
aa(lp3747
g223
ag3744
aa(lp3748
g225
ag3744
aa(lp3749
g227
ag3744
aa(lp3750
g229
ag3744
aa(lp3751
g231
ag3744
aa(lp3752
g233
ag3744
aa(lp3753
g235
ag3744
aa(lp3754
g237
ag3744
aa(lp3755
g239
ag3744
aa(lp3756
g241
ag3744
aa(lp3757
g243
ag3744
aa(lp3758
g245
ag3744
aa(lp3759
g247
ag3744
aa(lp3760
g249
ag3744
aa(lp3761
g251
ag3744
aa(lp3762
g253
ag3744
aa(lp3763
g255
ag3744
aa(lp3764
g257
ag3744
aa(lp3765
g259
ag3744
aa(lp3766
g261
ag3744
aa(lp3767
g263
ag3744
aa(lp3768
g265
ag3744
aa(lp3769
g267
ag3744
aa(lp3770
g269
ag3744
aa(lp3771
g271
ag3744
aa(lp3772
g273
ag3744
aa(lp3773
g275
ag3744
aa(lp3774
g277
ag3744
aa(lp3775
g279
ag3744
aa(lp3776
g281
ag3744
aa(lp3777
g283
ag3744
aa(lp3778
g285
ag3744
aa(lp3779
g287
ag3744
aasS'LEAD'
p3780
(lp3781
(lp3782
g212
ag5
((lp3783
g7
ag9
ag214
ag336
atp3784
Rp3785
aa(lp3786
g219
ag3785
aa(lp3787
g221
ag3785
aa(lp3788
g223
ag3785
aa(lp3789
g225
ag3785
aa(lp3790
g227
ag3785
aa(lp3791
g229
ag3785
aa(lp3792
g231
ag3785
aa(lp3793
g233
ag3785
aa(lp3794
g235
ag3785
aa(lp3795
g237
ag3785
aa(lp3796
g239
ag3785
aa(lp3797
g241
ag3785
aa(lp3798
g243
ag3785
aa(lp3799
g245
ag3785
aa(lp3800
g247
ag3785
aa(lp3801
g249
ag3785
aa(lp3802
g251
ag3785
aa(lp3803
g253
ag3785
aa(lp3804
g255
ag3785
aa(lp3805
g257
ag3785
aa(lp3806
g259
ag3785
aa(lp3807
g261
ag3785
aa(lp3808
g263
ag3785
aa(lp3809
g265
ag3785
aa(lp3810
g267
ag3785
aa(lp3811
g269
ag3785
aa(lp3812
g271
ag3785
aa(lp3813
g273
ag3785
aa(lp3814
g275
ag3785
aa(lp3815
g277
ag3785
aa(lp3816
g279
ag3785
aa(lp3817
g281
ag3785
aa(lp3818
g283
ag3785
aa(lp3819
g285
ag3785
aa(lp3820
g287
ag3785
aasS'THING'
p3821
(lp3822
(lp3823
g506
ag5
((lp3824
g10
ag1473
ag14
ag957
ag12
atp3825
Rp3826
aa(lp3827
g511
ag3826
aa(lp3828
g513
ag3826
aa(lp3829
g515
ag3826
aa(lp3830
g517
ag3826
aa(lp3831
g519
ag3826
aa(lp3832
g521
ag3826
aa(lp3833
g523
ag3826
aa(lp3834
g525
ag3826
aa(lp3835
g527
ag3826
aa(lp3836
g529
ag3826
aa(lp3837
g531
ag3826
aa(lp3838
g533
ag3826
aa(lp3839
g535
ag3826
aa(lp3840
g537
ag3826
aa(lp3841
g539
ag3826
aa(lp3842
g541
ag3826
aa(lp3843
g543
ag3826
aa(lp3844
g545
ag3826
aa(lp3845
g547
ag3826
aa(lp3846
g549
ag3826
aa(lp3847
g551
ag3826
aa(lp3848
g553
ag3826
aa(lp3849
g555
ag3826
aa(lp3850
g557
ag3826
aa(lp3851
g559
ag3826
aa(lp3852
g561
ag3826
aa(lp3853
g563
ag3826
aa(lp3854
g565
ag3826
aa(lp3855
g567
ag3826
aa(lp3856
g569
ag3826
aa(lp3857
g571
ag3826
aa(lp3858
g573
ag3826
aa(lp3859
g575
ag3826
aa(lp3860
g577
ag3826
aa(lp3861
g579
ag3826
aa(lp3862
g581
ag3826
aa(lp3863
g583
ag3826
aa(lp3864
g585
ag3826
aa(lp3865
g587
ag3826
aa(lp3866
g589
ag3826
aa(lp3867
g591
ag3826
aa(lp3868
g593
ag3826
aa(lp3869
g595
ag3826
aa(lp3870
g597
ag3826
aa(lp3871
g599
ag3826
aa(lp3872
g601
ag3826
aa(lp3873
g603
ag3826
aa(lp3874
g605
ag3826
aa(lp3875
g607
ag3826
aa(lp3876
g609
ag3826
aa(lp3877
g611
ag3826
aa(lp3878
g613
ag3826
aa(lp3879
g615
ag3826
aa(lp3880
g617
ag3826
aa(lp3881
g619
ag3826
aa(lp3882
g621
ag3826
aa(lp3883
g623
ag3826
aa(lp3884
g625
ag3826
aa(lp3885
g627
ag3826
aa(lp3886
g629
ag3826
aa(lp3887
g631
ag3826
aa(lp3888
g633
ag3826
aa(lp3889
g635
ag3826
aa(lp3890
g637
ag3826
aa(lp3891
g639
ag3826
aasS'PHASE'
p3892
(lp3893
(lp3894
g506
ag5
((lp3895
g7
ag915
ag292
ag9
ag1473
atp3896
Rp3897
aa(lp3898
g511
ag3897
aa(lp3899
g513
ag3897
aa(lp3900
g515
ag3897
aa(lp3901
g517
ag3897
aa(lp3902
g519
ag3897
aa(lp3903
g521
ag3897
aa(lp3904
g523
ag3897
aa(lp3905
g525
ag3897
aa(lp3906
g527
ag3897
aa(lp3907
g529
ag3897
aa(lp3908
g531
ag3897
aa(lp3909
g533
ag3897
aa(lp3910
g535
ag3897
aa(lp3911
g537
ag3897
aa(lp3912
g539
ag3897
aa(lp3913
g541
ag3897
aa(lp3914
g543
ag3897
aa(lp3915
g545
ag3897
aa(lp3916
g547
ag3897
aa(lp3917
g549
ag3897
aa(lp3918
g551
ag3897
aa(lp3919
g553
ag3897
aa(lp3920
g555
ag3897
aa(lp3921
g557
ag3897
aa(lp3922
g559
ag3897
aa(lp3923
g561
ag3897
aa(lp3924
g563
ag3897
aa(lp3925
g565
ag3897
aa(lp3926
g567
ag3897
aa(lp3927
g569
ag3897
aa(lp3928
g571
ag3897
aa(lp3929
g573
ag3897
aa(lp3930
g575
ag3897
aa(lp3931
g577
ag3897
aa(lp3932
g579
ag3897
aa(lp3933
g581
ag3897
aa(lp3934
g583
ag3897
aa(lp3935
g585
ag3897
aa(lp3936
g587
ag3897
aa(lp3937
g589
ag3897
aa(lp3938
g591
ag3897
aa(lp3939
g593
ag3897
aa(lp3940
g595
ag3897
aa(lp3941
g597
ag3897
aa(lp3942
g599
ag3897
aa(lp3943
g601
ag3897
aa(lp3944
g603
ag3897
aa(lp3945
g605
ag3897
aa(lp3946
g607
ag3897
aa(lp3947
g609
ag3897
aa(lp3948
g611
ag3897
aa(lp3949
g613
ag3897
aa(lp3950
g615
ag3897
aa(lp3951
g617
ag3897
aa(lp3952
g619
ag3897
aa(lp3953
g621
ag3897
aa(lp3954
g623
ag3897
aa(lp3955
g625
ag3897
aa(lp3956
g627
ag3897
aa(lp3957
g629
ag3897
aa(lp3958
g631
ag3897
aa(lp3959
g633
ag3897
aa(lp3960
g635
ag3897
aa(lp3961
g637
ag3897
aa(lp3962
g639
ag3897
aasS'REGION'
p3963
(lp3964
(lp3965
g717
ag5
((lp3966
g9
ag957
ag10
ag11
ag12
ag13
atp3967
Rp3968
aa(lp3969
g722
ag3968
aa(lp3970
g724
ag3968
aa(lp3971
g726
ag3968
aa(lp3972
g728
ag3968
aa(lp3973
g730
ag3968
aa(lp3974
g732
ag3968
aa(lp3975
g734
ag3968
aa(lp3976
g736
ag3968
aa(lp3977
g738
ag3968
aa(lp3978
g740
ag3968
aa(lp3979
g742
ag3968
aa(lp3980
g744
ag3968
aa(lp3981
g746
ag3968
aa(lp3982
g748
ag3968
aa(lp3983
g750
ag3968
aa(lp3984
g752
ag3968
aa(lp3985
g754
ag3968
aa(lp3986
g756
ag3968
aa(lp3987
g758
ag3968
aa(lp3988
g760
ag3968
aa(lp3989
g762
ag3968
aa(lp3990
g764
ag3968
aa(lp3991
g766
ag3968
aa(lp3992
g768
ag3968
aa(lp3993
g770
ag3968
aa(lp3994
g772
ag3968
aa(lp3995
g774
ag3968
aa(lp3996
g776
ag3968
aa(lp3997
g778
ag3968
aa(lp3998
g780
ag3968
aa(lp3999
g782
ag3968
aa(lp4000
g784
ag3968
aa(lp4001
g786
ag3968
aa(lp4002
g788
ag3968
aa(lp4003
g790
ag3968
aa(lp4004
g792
ag3968
aa(lp4005
g794
ag3968
aa(lp4006
g796
ag3968
aa(lp4007
g798
ag3968
aa(lp4008
g800
ag3968
aa(lp4009
g802
ag3968
aa(lp4010
g804
ag3968
aa(lp4011
g806
ag3968
aa(lp4012
g808
ag3968
aa(lp4013
g810
ag3968
aa(lp4014
g812
ag3968
aa(lp4015
g814
ag3968
aa(lp4016
g816
ag3968
aa(lp4017
g818
ag3968
aa(lp4018
g820
ag3968
aa(lp4019
g822
ag3968
aa(lp4020
g824
ag3968
aa(lp4021
g826
ag3968
aa(lp4022
g828
ag3968
aa(lp4023
g830
ag3968
aa(lp4024
g832
ag3968
aa(lp4025
g834
ag3968
aa(lp4026
g836
ag3968
aa(lp4027
g838
ag3968
aa(lp4028
g840
ag3968
aa(lp4029
g842
ag3968
aa(lp4030
g844
ag3968
aa(lp4031
g846
ag3968
aa(lp4032
g848
ag3968
aa(lp4033
g850
ag3968
aa(lp4034
g852
ag3968
aa(lp4035
g854
ag3968
aa(lp4036
g856
ag3968
aa(lp4037
g858
ag3968
aa(lp4038
g860
ag3968
aa(lp4039
g862
ag3968
aa(lp4040
g864
ag3968
aa(lp4041
g866
ag3968
aa(lp4042
g868
ag3968
aa(lp4043
g870
ag3968
aa(lp4044
g872
ag3968
aa(lp4045
g874
ag3968
aa(lp4046
g876
ag3968
aa(lp4047
g878
ag3968
aa(lp4048
g880
ag3968
aa(lp4049
g882
ag3968
aa(lp4050
g884
ag3968
aa(lp4051
g886
ag3968
aa(lp4052
g888
ag3968
aa(lp4053
g890
ag3968
aa(lp4054
g892
ag3968
aa(lp4055
g894
ag3968
aa(lp4056
g896
ag3968
aa(lp4057
g898
ag3968
aa(lp4058
g900
ag3968
aa(lp4059
g902
ag3968
aa(lp4060
g904
ag3968
aa(lp4061
g906
ag3968
aa(lp4062
g908
ag3968
aa(lp4063
g910
ag3968
aasS'REFORM'
p4064
(lp4065
sS'SHOUT'
p4066
(lp4067
(lp4068
g506
ag5
((lp4069
g1473
ag292
ag293
ag14
ag11
atp4070
Rp4071
aa(lp4072
g511
ag4071
aa(lp4073
g513
ag4071
aa(lp4074
g515
ag4071
aa(lp4075
g517
ag4071
aa(lp4076
g519
ag4071
aa(lp4077
g521
ag4071
aa(lp4078
g523
ag4071
aa(lp4079
g525
ag4071
aa(lp4080
g527
ag4071
aa(lp4081
g529
ag4071
aa(lp4082
g531
ag4071
aa(lp4083
g533
ag4071
aa(lp4084
g535
ag4071
aa(lp4085
g537
ag4071
aa(lp4086
g539
ag4071
aa(lp4087
g541
ag4071
aa(lp4088
g543
ag4071
aa(lp4089
g545
ag4071
aa(lp4090
g547
ag4071
aa(lp4091
g549
ag4071
aa(lp4092
g551
ag4071
aa(lp4093
g553
ag4071
aa(lp4094
g555
ag4071
aa(lp4095
g557
ag4071
aa(lp4096
g559
ag4071
aa(lp4097
g561
ag4071
aa(lp4098
g563
ag4071
aa(lp4099
g565
ag4071
aa(lp4100
g567
ag4071
aa(lp4101
g569
ag4071
aa(lp4102
g571
ag4071
aa(lp4103
g573
ag4071
aa(lp4104
g575
ag4071
aa(lp4105
g577
ag4071
aa(lp4106
g579
ag4071
aa(lp4107
g581
ag4071
aa(lp4108
g583
ag4071
aa(lp4109
g585
ag4071
aa(lp4110
g587
ag4071
aa(lp4111
g589
ag4071
aa(lp4112
g591
ag4071
aa(lp4113
g593
ag4071
aa(lp4114
g595
ag4071
aa(lp4115
g597
ag4071
aa(lp4116
g599
ag4071
aa(lp4117
g601
ag4071
aa(lp4118
g603
ag4071
aa(lp4119
g605
ag4071
aa(lp4120
g607
ag4071
aa(lp4121
g609
ag4071
aa(lp4122
g611
ag4071
aa(lp4123
g613
ag4071
aa(lp4124
g615
ag4071
aa(lp4125
g617
ag4071
aa(lp4126
g619
ag4071
aa(lp4127
g621
ag4071
aa(lp4128
g623
ag4071
aa(lp4129
g625
ag4071
aa(lp4130
g627
ag4071
aa(lp4131
g629
ag4071
aa(lp4132
g631
ag4071
aa(lp4133
g633
ag4071
aa(lp4134
g635
ag4071
aa(lp4135
g637
ag4071
aa(lp4136
g639
ag4071
aasS'SHUT'
p4137
(lp4138
(lp4139
g212
ag5
((lp4140
g1473
ag292
ag293
ag14
atp4141
Rp4142
aa(lp4143
g219
ag4142
aa(lp4144
g221
ag4142
aa(lp4145
g223
ag4142
aa(lp4146
g225
ag4142
aa(lp4147
g227
ag4142
aa(lp4148
g229
ag4142
aa(lp4149
g231
ag4142
aa(lp4150
g233
ag4142
aa(lp4151
g235
ag4142
aa(lp4152
g237
ag4142
aa(lp4153
g239
ag4142
aa(lp4154
g241
ag4142
aa(lp4155
g243
ag4142
aa(lp4156
g245
ag4142
aa(lp4157
g247
ag4142
aa(lp4158
g249
ag4142
aa(lp4159
g251
ag4142
aa(lp4160
g253
ag4142
aa(lp4161
g255
ag4142
aa(lp4162
g257
ag4142
aa(lp4163
g259
ag4142
aa(lp4164
g261
ag4142
aa(lp4165
g263
ag4142
aa(lp4166
g265
ag4142
aa(lp4167
g267
ag4142
aa(lp4168
g269
ag4142
aa(lp4169
g271
ag4142
aa(lp4170
g273
ag4142
aa(lp4171
g275
ag4142
aa(lp4172
g277
ag4142
aa(lp4173
g279
ag4142
aa(lp4174
g281
ag4142
aa(lp4175
g283
ag4142
aa(lp4176
g285
ag4142
aa(lp4177
g287
ag4142
aasS'MEAL'
p4178
(lp4179
(lp4180
g212
ag5
((lp4181
g7
ag9
ag2735
ag214
atp4182
Rp4183
aa(lp4184
g219
ag4183
aa(lp4185
g221
ag4183
aa(lp4186
g223
ag4183
aa(lp4187
g225
ag4183
aa(lp4188
g227
ag4183
aa(lp4189
g229
ag4183
aa(lp4190
g231
ag4183
aa(lp4191
g233
ag4183
aa(lp4192
g235
ag4183
aa(lp4193
g237
ag4183
aa(lp4194
g239
ag4183
aa(lp4195
g241
ag4183
aa(lp4196
g243
ag4183
aa(lp4197
g245
ag4183
aa(lp4198
g247
ag4183
aa(lp4199
g249
ag4183
aa(lp4200
g251
ag4183
aa(lp4201
g253
ag4183
aa(lp4202
g255
ag4183
aa(lp4203
g257
ag4183
aa(lp4204
g259
ag4183
aa(lp4205
g261
ag4183
aa(lp4206
g263
ag4183
aa(lp4207
g265
ag4183
aa(lp4208
g267
ag4183
aa(lp4209
g269
ag4183
aa(lp4210
g271
ag4183
aa(lp4211
g273
ag4183
aa(lp4212
g275
ag4183
aa(lp4213
g277
ag4183
aa(lp4214
g279
ag4183
aa(lp4215
g281
ag4183
aa(lp4216
g283
ag4183
aa(lp4217
g285
ag4183
aa(lp4218
g287
ag4183
aasS'NOTE'
p4219
(lp4220
(lp4221
g212
ag5
((lp4222
g9
ag14
ag11
ag12
atp4223
Rp4224
aa(lp4225
g219
ag4224
aa(lp4226
g221
ag4224
aa(lp4227
g223
ag4224
aa(lp4228
g225
ag4224
aa(lp4229
g227
ag4224
aa(lp4230
g229
ag4224
aa(lp4231
g231
ag4224
aa(lp4232
g233
ag4224
aa(lp4233
g235
ag4224
aa(lp4234
g237
ag4224
aa(lp4235
g239
ag4224
aa(lp4236
g241
ag4224
aa(lp4237
g243
ag4224
aa(lp4238
g245
ag4224
aa(lp4239
g247
ag4224
aa(lp4240
g249
ag4224
aa(lp4241
g251
ag4224
aa(lp4242
g253
ag4224
aa(lp4243
g255
ag4224
aa(lp4244
g257
ag4224
aa(lp4245
g259
ag4224
aa(lp4246
g261
ag4224
aa(lp4247
g263
ag4224
aa(lp4248
g265
ag4224
aa(lp4249
g267
ag4224
aa(lp4250
g269
ag4224
aa(lp4251
g271
ag4224
aa(lp4252
g273
ag4224
aa(lp4253
g275
ag4224
aa(lp4254
g277
ag4224
aa(lp4255
g279
ag4224
aa(lp4256
g281
ag4224
aa(lp4257
g283
ag4224
aa(lp4258
g285
ag4224
aa(lp4259
g287
ag4224
aasS'ITEM'
p4260
(lp4261
(lp4262
g212
ag5
((lp4263
g10
ag2735
ag9
ag14
atp4264
Rp4265
aa(lp4266
g219
ag4265
aa(lp4267
g221
ag4265
aa(lp4268
g223
ag4265
aa(lp4269
g225
ag4265
aa(lp4270
g227
ag4265
aa(lp4271
g229
ag4265
aa(lp4272
g231
ag4265
aa(lp4273
g233
ag4265
aa(lp4274
g235
ag4265
aa(lp4275
g237
ag4265
aa(lp4276
g239
ag4265
aa(lp4277
g241
ag4265
aa(lp4278
g243
ag4265
aa(lp4279
g245
ag4265
aa(lp4280
g247
ag4265
aa(lp4281
g249
ag4265
aa(lp4282
g251
ag4265
aa(lp4283
g253
ag4265
aa(lp4284
g255
ag4265
aa(lp4285
g257
ag4265
aa(lp4286
g259
ag4265
aa(lp4287
g261
ag4265
aa(lp4288
g263
ag4265
aa(lp4289
g265
ag4265
aa(lp4290
g267
ag4265
aa(lp4291
g269
ag4265
aa(lp4292
g271
ag4265
aa(lp4293
g273
ag4265
aa(lp4294
g275
ag4265
aa(lp4295
g277
ag4265
aa(lp4296
g279
ag4265
aa(lp4297
g281
ag4265
aa(lp4298
g283
ag4265
aa(lp4299
g285
ag4265
aa(lp4300
g287
ag4265
aasS'NEAR'
p4301
(lp4302
(lp4303
g212
ag5
((lp4304
g7
ag13
ag9
ag12
atp4305
Rp4306
aa(lp4307
g219
ag4306
aa(lp4308
g221
ag4306
aa(lp4309
g223
ag4306
aa(lp4310
g225
ag4306
aa(lp4311
g227
ag4306
aa(lp4312
g229
ag4306
aa(lp4313
g231
ag4306
aa(lp4314
g233
ag4306
aa(lp4315
g235
ag4306
aa(lp4316
g237
ag4306
aa(lp4317
g239
ag4306
aa(lp4318
g241
ag4306
aa(lp4319
g243
ag4306
aa(lp4320
g245
ag4306
aa(lp4321
g247
ag4306
aa(lp4322
g249
ag4306
aa(lp4323
g251
ag4306
aa(lp4324
g253
ag4306
aa(lp4325
g255
ag4306
aa(lp4326
g257
ag4306
aa(lp4327
g259
ag4306
aa(lp4328
g261
ag4306
aa(lp4329
g263
ag4306
aa(lp4330
g265
ag4306
aa(lp4331
g267
ag4306
aa(lp4332
g269
ag4306
aa(lp4333
g271
ag4306
aa(lp4334
g273
ag4306
aa(lp4335
g275
ag4306
aa(lp4336
g277
ag4306
aa(lp4337
g279
ag4306
aa(lp4338
g281
ag4306
aa(lp4339
g283
ag4306
aa(lp4340
g285
ag4306
aa(lp4341
g287
ag4306
aasS'SHEET'
p4342
(lp4343
sS'TIME'
p4344
(lp4345
(lp4346
g212
ag5
((lp4347
g10
ag9
ag2735
ag14
atp4348
Rp4349
aa(lp4350
g219
ag4349
aa(lp4351
g221
ag4349
aa(lp4352
g223
ag4349
aa(lp4353
g225
ag4349
aa(lp4354
g227
ag4349
aa(lp4355
g229
ag4349
aa(lp4356
g231
ag4349
aa(lp4357
g233
ag4349
aa(lp4358
g235
ag4349
aa(lp4359
g237
ag4349
aa(lp4360
g239
ag4349
aa(lp4361
g241
ag4349
aa(lp4362
g243
ag4349
aa(lp4363
g245
ag4349
aa(lp4364
g247
ag4349
aa(lp4365
g249
ag4349
aa(lp4366
g251
ag4349
aa(lp4367
g253
ag4349
aa(lp4368
g255
ag4349
aa(lp4369
g257
ag4349
aa(lp4370
g259
ag4349
aa(lp4371
g261
ag4349
aa(lp4372
g263
ag4349
aa(lp4373
g265
ag4349
aa(lp4374
g267
ag4349
aa(lp4375
g269
ag4349
aa(lp4376
g271
ag4349
aa(lp4377
g273
ag4349
aa(lp4378
g275
ag4349
aa(lp4379
g277
ag4349
aa(lp4380
g279
ag4349
aa(lp4381
g281
ag4349
aa(lp4382
g283
ag4349
aa(lp4383
g285
ag4349
aa(lp4384
g287
ag4349
aasS'NOW'
p4385
(lp4386
(lp4387
g684
ag5
((lp4388
g1732
ag11
ag12
atp4389
Rp4390
aa(lp4391
g689
ag4390
aa(lp4392
g691
ag4390
aa(lp4393
g693
ag4390
aa(lp4394
g695
ag4390
aa(lp4395
g697
ag4390
aa(lp4396
g699
ag4390
aa(lp4397
g701
ag4390
aa(lp4398
g703
ag4390
aa(lp4399
g705
ag4390
aa(lp4400
g707
ag4390
aa(lp4401
g709
ag4390
aa(lp4402
g711
ag4390
aasS'ITS'
p4403
(lp4404
(lp4405
g684
ag5
((lp4406
g10
ag292
ag14
atp4407
Rp4408
aa(lp4409
g689
ag4408
aa(lp4410
g691
ag4408
aa(lp4411
g693
ag4408
aa(lp4412
g695
ag4408
aa(lp4413
g697
ag4408
aa(lp4414
g699
ag4408
aa(lp4415
g701
ag4408
aa(lp4416
g703
ag4408
aa(lp4417
g705
ag4408
aa(lp4418
g707
ag4408
aa(lp4419
g709
ag4408
aa(lp4420
g711
ag4408
aasS'BOARD'
p4421
(lp4422
(lp4423
g506
ag5
((lp4424
g7
ag13
ag1852
ag336
ag11
atp4425
Rp4426
aa(lp4427
g511
ag4426
aa(lp4428
g513
ag4426
aa(lp4429
g515
ag4426
aa(lp4430
g517
ag4426
aa(lp4431
g519
ag4426
aa(lp4432
g521
ag4426
aa(lp4433
g523
ag4426
aa(lp4434
g525
ag4426
aa(lp4435
g527
ag4426
aa(lp4436
g529
ag4426
aa(lp4437
g531
ag4426
aa(lp4438
g533
ag4426
aa(lp4439
g535
ag4426
aa(lp4440
g537
ag4426
aa(lp4441
g539
ag4426
aa(lp4442
g541
ag4426
aa(lp4443
g543
ag4426
aa(lp4444
g545
ag4426
aa(lp4445
g547
ag4426
aa(lp4446
g549
ag4426
aa(lp4447
g551
ag4426
aa(lp4448
g553
ag4426
aa(lp4449
g555
ag4426
aa(lp4450
g557
ag4426
aa(lp4451
g559
ag4426
aa(lp4452
g561
ag4426
aa(lp4453
g563
ag4426
aa(lp4454
g565
ag4426
aa(lp4455
g567
ag4426
aa(lp4456
g569
ag4426
aa(lp4457
g571
ag4426
aa(lp4458
g573
ag4426
aa(lp4459
g575
ag4426
aa(lp4460
g577
ag4426
aa(lp4461
g579
ag4426
aa(lp4462
g581
ag4426
aa(lp4463
g583
ag4426
aa(lp4464
g585
ag4426
aa(lp4465
g587
ag4426
aa(lp4466
g589
ag4426
aa(lp4467
g591
ag4426
aa(lp4468
g593
ag4426
aa(lp4469
g595
ag4426
aa(lp4470
g597
ag4426
aa(lp4471
g599
ag4426
aa(lp4472
g601
ag4426
aa(lp4473
g603
ag4426
aa(lp4474
g605
ag4426
aa(lp4475
g607
ag4426
aa(lp4476
g609
ag4426
aa(lp4477
g611
ag4426
aa(lp4478
g613
ag4426
aa(lp4479
g615
ag4426
aa(lp4480
g617
ag4426
aa(lp4481
g619
ag4426
aa(lp4482
g621
ag4426
aa(lp4483
g623
ag4426
aa(lp4484
g625
ag4426
aa(lp4485
g627
ag4426
aa(lp4486
g629
ag4426
aa(lp4487
g631
ag4426
aa(lp4488
g633
ag4426
aa(lp4489
g635
ag4426
aa(lp4490
g637
ag4426
aa(lp4491
g639
ag4426
aas.